(dp1
S'NEE-02 KRYSAOR'
p2
S'sat tle/cubesat/sat37'
p3
sS'COSMOS 1933'
p4
S'sat tle/visual/sat58'
p5
sS'UCLSAT'
p6
S'sat tle/cubesat/sat292'
p7
sS'CANX-4'
p8
S'sat tle/engineering/sat25'
p9
sS'IRIDIUM 911 [-]'
p10
S'sat tle/iridium/sat9'
p11
sS'ASTRA 5B (EGNOS/PRN 123)'
p12
S'sat tle/sbas/sat11'
p13
sS'COSMOS 2457 (733)'
p14
S'sat tle/glo-ops/sat7'
p15
sS'ARIRANG-5 (KOMPSAT-5)'
p16
S'sat tle/resource/sat71'
p17
sS'ORBCOMM FM13 [+]'
p18
S'sat tle/orbcomm/sat20'
p19
sS'PRATHAM'
p20
S'sat tle/amateur/sat72'
p21
sS'ORBCOMM FM16 [+]'
p22
S'sat tle/orbcomm/sat17'
p23
sS'THEOS'
p24
S'sat tle/resource/sat37'
p25
sS'ABS-7'
p26
S'sat tle/geo/sat38'
p27
sS'XW-2C'
p28
S'sat tle/amateur/sat54'
p29
sS'XW-2B'
p30
S'sat tle/amateur/sat58'
p31
sS'MOZHAYETS 4 (RS-22)'
p32
S'sat tle/amateur/sat13'
p33
sS'XW-2F'
p34
S'sat tle/amateur/sat57'
p35
sS'XW-2D'
p36
S'sat tle/amateur/sat55'
p37
sS'GAOFEN 4'
p38
S'sat tle/geo/sat392'
p39
sS'GAOFEN 1'
p40
S'sat tle/resource/sat69'
p41
sS'THOR AGENA D R/B'
p42
S'sat tle/visual/sat1'
p43
sS'NSS-9'
p44
S'sat tle/ses/sat34'
p45
sS'INTELSAT 17 (IS-17)'
p46
S'sat tle/intelsat/sat53'
p47
sS'QB50P2'
p48
S'sat tle/cubesat/sat50'
p49
sS'AMOS-4'
p50
S'sat tle/geo/sat324'
p51
sS'NSS-6'
p52
S'sat tle/ses/sat20'
p53
sS'NSS-7'
p54
S'sat tle/ses/sat19'
p55
sS'AMOS-3'
p56
S'sat tle/geo/sat184'
p57
sS'ARIRANG-2 (KOMPSAT-2)'
p58
S'sat tle/resource/sat17'
p59
sS'ATLANTIS'
p60
S'sat tle/cubesat/sat287'
p61
sS'FLOCK 3P-15'
p62
S'sat tle/cubesat/sat237'
p63
sS'FLOCK 3P-14'
p64
S'sat tle/cubesat/sat210'
p65
sS'FLOCK 3P-17'
p66
S'sat tle/cubesat/sat160'
p67
sS'FLOCK 3P-16'
p68
S'sat tle/cubesat/sat209'
p69
sS'FLOCK 3P-11'
p70
S'sat tle/cubesat/sat173'
p71
sS'FLOCK 3P-10'
p72
S'sat tle/cubesat/sat172'
p73
sS'FLOCK 3P-13'
p74
S'sat tle/cubesat/sat238'
p75
sS'FLOCK 3P-12'
p76
S'sat tle/cubesat/sat170'
p77
sS'FLOCK 3P-19'
p78
S'sat tle/cubesat/sat153'
p79
sS'FLOCK 3P-18'
p80
S'sat tle/cubesat/sat155'
p81
sS'IRIDIUM 83 [+]'
p82
S'sat tle/iridium/sat76'
p83
sS'TELSTAR 11N'
p84
S'sat tle/geo/sat206'
p85
sS'SINAH 1'
p86
S'sat tle/resource/sat14'
p87
sS'ECHOSTAR 12 (RAINBOW 1)'
p88
S'sat tle/geo/sat98'
p89
sS'CHINASAT 16 (SJ-13)'
p90
S'sat tle/geo/sat429'
p91
sS'JUGNU'
p92
S'sat tle/amateur/sat26'
p93
sS'DELTA 1 R/B'
p94
S'sat tle/visual/sat68'
p95
sS'LEMUR-2-MCPEAKE'
p96
S'sat tle/cubesat/sat304'
p97
sS'LEMUR-2-PETER'
p98
S'sat tle/cubesat/sat77'
p99
sS'FLOCK 2K-08'
p100
S'sat tle/cubesat/sat341'
p101
sS'IRIDIUM 22 [+]'
p102
S'sat tle/iridium/sat19'
p103
sS'TISAT 1'
p104
S'sat tle/cubesat/sat13'
p105
sS'COSMOS 2432 (719)'
p106
S'sat tle/glo-ops/sat3'
p107
sS'IRIDIUM 921 [-]'
p108
S'sat tle/iridium/sat14'
p109
sS'LEMUR-2-LUCYBRYCE'
p110
S'sat tle/cubesat/sat296'
p111
sS'TERRA'
p112
S'sat tle/science/sat7'
p113
sS'LEMUR-2-XIAOQING'
p114
S'sat tle/cubesat/sat140'
p115
sS'SKYNET 4E'
p116
S'sat tle/geo/sat33'
p117
sS'SKYNET 4F'
p118
S'sat tle/geo/sat62'
p119
sS'GORIZONT 16 [-]'
p120
S'sat tle/gorizont/sat15'
p121
sS'SKYNET 4C'
p122
S'sat tle/geo/sat1'
p123
sS'RISAT 1'
p124
S'sat tle/dmc/sat6'
p125
sS'MOLNIYA 3-50'
p126
S'sat tle/molniya/sat39'
p127
sS'GLOBALSTAR M026 [-]'
p128
S'sat tle/globalstar/sat29'
p129
sS'ORBCOMM FM02 [-]'
p130
S'sat tle/orbcomm/sat2'
p131
sS'BRITE-TORONTO'
p132
S'sat tle/cubesat/sat40'
p133
sS'ABS-3A'
p134
S'sat tle/geo/sat362'
p135
sS'EUTELSAT 9B'
p136
S'sat tle/geo/sat396'
p137
sS'ECHOSTAR 11'
p138
S'sat tle/geo/sat191'
p139
sS'ECHOSTAR 10'
p140
S'sat tle/geo/sat135'
p141
sS'ECHOSTAR 15'
p142
S'sat tle/geo/sat239'
p143
sS'SES-8'
p144
S'sat tle/ses/sat52'
p145
sS'ECHOSTAR 17'
p146
S'sat tle/geo/sat290'
p147
sS'ECHOSTAR 16'
p148
S'sat tle/geo/sat305'
p149
sS'SES-5'
p150
S'sat tle/ses/sat44'
p151
sS'SES-4'
p152
S'sat tle/ses/sat43'
p153
sS'SES-6'
p154
S'sat tle/ses/sat46'
p155
sS'SES-1'
p156
S'sat tle/ses/sat37'
p157
sS'SES-3'
p158
S'sat tle/ses/sat39'
p159
sS'SES-2'
p160
S'sat tle/ses/sat41'
p161
sS'DUBAISAT-1'
p162
S'sat tle/resource/sat43'
p163
sS'DUBAISAT-2'
p164
S'sat tle/resource/sat74'
p165
sS'QZS-3'
p166
S'sat tle/geo/sat445'
p167
sS'ORBCOMM FM114 [+]'
p168
S'sat tle/orbcomm/sat48'
p169
sS'NNSS 19 [?]'
p170
S'sat tle/nnss/sat3'
p171
sS'IRIS'
p172
S'sat tle/science/sat45'
p173
sS'EUTELSAT 25B'
p174
S'sat tle/geo/sat322'
p175
sS'LAOSAT 1'
p176
S'sat tle/geo/sat386'
p177
sS'DIRECTV 5 (TEMPO 1)'
p178
S'sat tle/intelsat/sat18'
p179
sS'IRIDIUM 16 [-]'
p180
S'sat tle/iridium/sat8'
p181
sS'LUCH 5A (SDCM/PRN 140)'
p182
S'sat tle/sbas/sat7'
p183
sS'NOAA 11 [-]'
p184
S'sat tle/noaa/sat11'
p185
sS'AMC-4 (GE-4)'
p186
S'sat tle/ses/sat10'
p187
sS'SKYTERRA 1'
p188
S'sat tle/geo/sat247'
p189
sS'ORBCOMM FM21 [+]'
p190
S'sat tle/orbcomm/sat21'
p191
sS'FLOCK 2E-12'
p192
S'sat tle/cubesat/sat103'
p193
sS'FLOCK 2E-11'
p194
S'sat tle/cubesat/sat104'
p195
sS'FLOCK 2E-10'
p196
S'sat tle/cubesat/sat102'
p197
sS'ORBCOMM FM106 [-]'
p198
S'sat tle/orbcomm/sat44'
p199
sS'IRIDIUM 5 [-]'
p200
S'sat tle/iridium/sat2'
p201
sS'RADUGA 32 [-]'
p202
S'sat tle/raduga/sat34'
p203
sS'PERSEUS-M2'
p204
S'sat tle/cubesat/sat55'
p205
sS'PERSEUS-M1'
p206
S'sat tle/cubesat/sat57'
p207
sS'HAVELSAT'
p208
S'sat tle/cubesat/sat254'
p209
sS'COSMOS 2058'
p210
S'sat tle/visual/sat70'
p211
sS'BRITE-PL 2'
p212
S'sat tle/cubesat/sat66'
p213
sS'CHALLENGER'
p214
S'sat tle/cubesat/sat271'
p215
sS'TECHNOSAT'
p216
S'sat tle/engineering/sat29'
p217
sS'SMOS'
p218
S'sat tle/resource/sat46'
p219
sS'ORBCOMM FM105 [-]'
p220
S'sat tle/orbcomm/sat50'
p221
sS'YAOGAN 18'
p222
S'sat tle/resource/sat72'
p223
sS'MOLNIYA 1-88'
p224
S'sat tle/molniya/sat35'
p225
sS'YAOGAN 10'
p226
S'sat tle/resource/sat50'
p227
sS'YAOGAN 13'
p228
S'sat tle/resource/sat56'
p229
sS'MOLNIYA 1-86'
p230
S'sat tle/molniya/sat33'
p231
sS'MOLNIYA 1-81'
p232
S'sat tle/molniya/sat30'
p233
sS'MOLNIYA 1-80'
p234
S'sat tle/molniya/sat28'
p235
sS'LEMUR-1'
p236
S'sat tle/cubesat/sat62'
p237
sS'VZLUSAT-1'
p238
S'sat tle/cubesat/sat312'
p239
sS'POLYITAN-2-SAU'
p240
S'sat tle/cubesat/sat282'
p241
sS'AMAZONAS 4A'
p242
S'sat tle/geo/sat340'
p243
sS'URSA MAIOR'
p244
S'sat tle/cubesat/sat299'
p245
sS'XW-2A'
p246
S'sat tle/amateur/sat51'
p247
sS'INTELSAT 805 (IS-805)'
p248
S'sat tle/intelsat/sat4'
p249
sS'IRIDIUM 115 [+]'
p250
S'sat tle/iridium-NEXT/sat13'
p251
sS'EUTELSAT 7 WEST A'
p252
S'sat tle/geo/sat271'
p253
sS'COSMOS 1833'
p254
S'sat tle/visual/sat51'
p255
sS'ORBCOMM FM34 [+]'
p256
S'sat tle/orbcomm/sat35'
p257
sS'VINASAT-1'
p258
S'sat tle/geo/sat181'
p259
sS'IRIDIUM 45 [+]'
p260
S'sat tle/iridium/sat39'
p261
sS'CIEL-2'
p262
S'sat tle/ses/sat33'
p263
sS'AMC-6 (GE-6)'
p264
S'sat tle/ses/sat14'
p265
sS'GLOBALSTAR M057 [-]'
p266
S'sat tle/globalstar/sat40'
p267
sS'SOMP'
p268
S'sat tle/cubesat/sat20'
p269
sS'INTELSAT 907 (IS-907)'
p270
S'sat tle/intelsat/sat22'
p271
sS'UKUBE-1'
p272
S'sat tle/cubesat/sat65'
p273
sS'SHARC'
p274
S'sat tle/cubesat/sat264'
p275
sS'OAO 2'
p276
S'sat tle/visual/sat5'
p277
sS'INTELSAT 22 (IS-22)'
p278
S'sat tle/intelsat/sat56'
p279
sS'ZACUBE-1 (TSHEPISOSAT)'
p280
S'sat tle/cubesat/sat29'
p281
sS'QB50P1'
p282
S'sat tle/cubesat/sat44'
p283
sS'ABS-2A (MONGOLSAT-1)'
p284
S'sat tle/geo/sat405'
p285
sS'X-CUBESAT'
p286
S'sat tle/cubesat/sat261'
p287
sS'VNREDSAT 1'
p288
S'sat tle/resource/sat70'
p289
sS'JASON-3'
p290
S'sat tle/resource/sat108'
p291
sS'APRIZESAT 8'
p292
S'sat tle/engineering/sat18'
p293
sS'RADARSAT-2'
p294
S'sat tle/resource/sat26'
p295
sS'APRIZESAT 9'
p296
S'sat tle/engineering/sat22'
p297
sS'TECHEDSAT 6'
p298
S'sat tle/cubesat/sat384'
p299
sS'NSS-5'
p300
S'sat tle/ses/sat5'
p301
sS'SKYNET 5D'
p302
S'sat tle/geo/sat309'
p303
sS'SKYNET 5B'
p304
S'sat tle/geo/sat171'
p305
sS'SKYNET 5C'
p306
S'sat tle/geo/sat187'
p307
sS'SKYNET 5A'
p308
S'sat tle/geo/sat159'
p309
sS'GLOBALSTAR M058 [-]'
p310
S'sat tle/globalstar/sat36'
p311
sS'DIAMOND BLUE'
p312
S'sat tle/cubesat/sat308'
p313
sS'H-2A R/B'
p314
S'sat tle/visual/sat138'
p315
sS'NOAA 19 [+]'
p316
S'sat tle/noaa/sat19'
p317
sS'RADUGA 9 [-]'
p318
S'sat tle/raduga/sat8'
p319
sS'CHINASAT 10 (ZX 10)'
p320
S'sat tle/geo/sat259'
p321
sS'GOES 9 [-]'
p322
S'sat tle/goes/sat8'
p323
sS'RADUGA 19 [-]'
p324
S'sat tle/raduga/sat18'
p325
sS'TRANSIT 16 [?]'
p326
S'sat tle/nnss/sat0'
p327
sS'SARSAT 11 (METOP-A)'
p328
S'sat tle/sarsat/sat11'
p329
sS'SYRACUSE 3B'
p330
S'sat tle/geo/sat147'
p331
sS'SYRACUSE 3A'
p332
S'sat tle/geo/sat128'
p333
sS'STARLETTE'
p334
S'sat tle/geodetic/sat0'
p335
sS'TURKSAT 4B'
p336
S'sat tle/geo/sat382'
p337
sS'TURKSAT 4A'
p338
S'sat tle/geo/sat337'
p339
sS'GLOBALSTAR M047 [-]'
p340
S'sat tle/globalstar/sat22'
p341
sS'PHOENIX'
p342
S'sat tle/cubesat/sat260'
p343
sS'SPAINSAT'
p344
S'sat tle/geo/sat137'
p345
sS'INTELSAT 901 (IS-901)'
p346
S'sat tle/intelsat/sat13'
p347
sS'LEMUR-2-ARTFISCHER'
p348
S'sat tle/cubesat/sat359'
p349
sS'SEASAT 1'
p350
S'sat tle/visual/sat18'
p351
sS'ASTRA 4A (SIRIUS 4)'
p352
S'sat tle/ses/sat30'
p353
sS'GLOBALSTAR M019 [-]'
p354
S'sat tle/globalstar/sat17'
p355
sS'IRIDIUM 47 [+]'
p356
S'sat tle/iridium/sat41'
p357
sS'GSAT0101 (GALILEO-PFM)'
p358
S'sat tle/sarsat/sat21'
p359
sS'IRIDIUM 103 [+]'
p360
S'sat tle/iridium-NEXT/sat1'
p361
sS'IRIDIUM 32 [+]'
p362
S'sat tle/iridium/sat23'
p363
sS'GORIZONT 30 [-]'
p364
S'sat tle/gorizont/sat29'
p365
sS'METEOSAT-8 (MSG-1)'
p366
S'sat tle/geo/sat84'
p367
sS'ORBCOMM FM25 [-]'
p368
S'sat tle/orbcomm/sat25'
p369
sS'IRIDIUM 97 [+]'
p370
S'sat tle/iridium/sat86'
p371
sS'EUTELSAT 12 WEST B'
p372
S'sat tle/geo/sat68'
p373
sS'GORIZONT 18 [-]'
p374
S'sat tle/gorizont/sat17'
p375
sS'MOLNIYA 3-10'
p376
S'sat tle/molniya/sat13'
p377
sS'MOLNIYA 3-13'
p378
S'sat tle/molniya/sat14'
p379
sS'DEIMOS-1'
p380
S'sat tle/dmc/sat4'
p381
sS'IRIDIUM 113 [+]'
p382
S'sat tle/iridium-NEXT/sat10'
p383
sS'ICO G1'
p384
S'sat tle/geo/sat180'
p385
sS'NJUST-1'
p386
S'sat tle/cubesat/sat272'
p387
sS'GSAT0205 (GALILEO 9)'
p388
S'sat tle/sarsat/sat43'
p389
sS'EXPRESS-AMU1'
p390
S'sat tle/geo/sat391'
p391
sS'GOES 2 [-]'
p392
S'sat tle/goes/sat1'
p393
sS'MEGHA-TROPIQUES'
p394
S'sat tle/resource/sat54'
p395
sS'HUANJING 1A (HJ-1A)'
p396
S'sat tle/resource/sat34'
p397
sS'RADUGA 1 [-]'
p398
S'sat tle/raduga/sat0'
p399
sS'IRIDIUM 58 [+]'
p400
S'sat tle/iridium/sat52'
p401
sS'RISAT-1'
p402
S'sat tle/resource/sat60'
p403
sS'CUBESAT XI 5'
p404
S'sat tle/cubesat/sat3'
p405
sS'EUTELSAT 33E'
p406
S'sat tle/geo/sat205'
p407
sS'GSAT-16'
p408
S'sat tle/geo/sat356'
p409
sS'EUTELSAT 33A'
p410
S'sat tle/geo/sat100'
p411
sS'EUTELSAT 33C'
p412
S'sat tle/geo/sat63'
p413
sS'ZA-AEROSAT'
p414
S'sat tle/cubesat/sat265'
p415
sS'GPS BIIF-7'
p416
S'sat tle/sarsat/sat34'
p417
sS'GPS BIIF-6'
p418
S'sat tle/sarsat/sat33'
p419
sS'GPS BIIF-5'
p420
S'sat tle/sarsat/sat31'
p421
sS'GPS BIIF-4'
p422
S'sat tle/sarsat/sat29'
p423
sS'GPS BIIF-3'
p424
S'sat tle/sarsat/sat26'
p425
sS'SPACEWAY 3'
p426
S'sat tle/intelsat/sat40'
p427
sS'GSAT-15'
p428
S'sat tle/geo/sat384'
p429
sS'HAIYANG-1B'
p430
S'sat tle/resource/sat20'
p431
sS'GPS BIIF-9'
p432
S'sat tle/sarsat/sat39'
p433
sS'GPS BIIF-8'
p434
S'sat tle/sarsat/sat37'
p435
sS'GORIZONT 12 [-]'
p436
S'sat tle/gorizont/sat11'
p437
sS'SERT 2'
p438
S'sat tle/visual/sat7'
p439
sS'CZ-2D R/B'
p440
S'sat tle/visual/sat123'
p441
sS'ZHONGXING-20A'
p442
S'sat tle/geo/sat248'
p443
sS'O3B FM2'
p444
S'sat tle/other-comm/sat2'
p445
sS'O3B FM3'
p446
S'sat tle/other-comm/sat4'
p447
sS'GORIZONT 31 [-]'
p448
S'sat tle/gorizont/sat30'
p449
sS'O3B FM7'
p450
S'sat tle/other-comm/sat5'
p451
sS'O3B FM4'
p452
S'sat tle/other-comm/sat1'
p453
sS'O3B FM5'
p454
S'sat tle/other-comm/sat0'
p455
sS'CRW (WAAS/PRN 135)'
p456
S'sat tle/sbas/sat2'
p457
sS'O3B FM8'
p458
S'sat tle/other-comm/sat7'
p459
sS'O3B FM9'
p460
S'sat tle/other-comm/sat11'
p461
sS'ORBCOMM FM11 [+]'
p462
S'sat tle/orbcomm/sat5'
p463
sS'COSMOS 2477 (745)'
p464
S'sat tle/glo-ops/sat16'
p465
sS'IRIDIUM 125 [+]'
p466
S'sat tle/iridium-NEXT/sat29'
p467
sS'DIRECTV 9S'
p468
S'sat tle/intelsat/sat36'
p469
sS'GALAXY 28 (G-28)'
p470
S'sat tle/intelsat/sat31'
p471
sS'LEMUR-2-JENNYBARNA'
p472
S'sat tle/cubesat/sat289'
p473
sS'IRIDIUM 20 [+]'
p474
S'sat tle/iridium/sat77'
p475
sS'INTELSAT 9 (IS-9)'
p476
S'sat tle/intelsat/sat9'
p477
sS'NIGCOMSAT 1R'
p478
S'sat tle/geo/sat278'
p479
sS'ARABSAT-5A'
p480
S'sat tle/geo/sat238'
p481
sS'RADUGA-1 1 [-]'
p482
S'sat tle/raduga/sat23'
p483
sS'ARABSAT-5C'
p484
S'sat tle/geo/sat270'
p485
sS'FLOCK 3M-1'
p486
S'sat tle/cubesat/sat377'
p487
sS'FLOCK 3M-2'
p488
S'sat tle/cubesat/sat380'
p489
sS'FLOCK 3M-3'
p490
S'sat tle/cubesat/sat378'
p491
sS'FLOCK 3M-4'
p492
S'sat tle/cubesat/sat379'
p493
sS'OSNSAT'
p494
S'sat tle/cubesat/sat148'
p495
sS'GOES 15 [+]'
p496
S'sat tle/goes/sat14'
p497
sS'NOAA 15'
p498
S'sat tle/argos/sat0'
p499
sS'NOAA 19'
p500
S'sat tle/argos/sat3'
p501
sS'NOAA 18'
p502
S'sat tle/argos/sat1'
p503
sS'IRIDIUM 33 DEB'
p504
S'sat tle/iridium-33-debris/sat317'
p505
sS'HISAKI (SPRINT-A)'
p506
S'sat tle/science/sat46'
p507
sS'AISSAT 1'
p508
S'sat tle/x-comm/sat12'
p509
sS'XMM-NEWTON'
p510
S'sat tle/science/sat6'
p511
sS'IRIDIUM 4 [-]'
p512
S'sat tle/iridium/sat3'
p513
sS'GSAT0214 (PRN E05)'
p514
S'sat tle/galileo/sat17'
p515
sS'COSMOS 2151'
p516
S'sat tle/visual/sat80'
p517
sS'AMAZONAS 5'
p518
S'sat tle/geo/sat446'
p519
sS'AMAZONAS 2'
p520
S'sat tle/geo/sat218'
p521
sS'AMAZONAS 3'
p522
S'sat tle/geo/sat312'
p523
sS'IRIDIUM 67 [+]'
p524
S'sat tle/iridium/sat60'
p525
sS'MAROC-TUBSAT'
p526
S'sat tle/resource/sat7'
p527
sS'UWE-3'
p528
S'sat tle/cubesat/sat39'
p529
sS'GPS BIIRM-5 (PRN 29)'
p530
S'sat tle/gps-ops/sat16'
p531
sS'ORBCOMM FM113 [+]'
p532
S'sat tle/orbcomm/sat54'
p533
sS'FLOCK 3P-79'
p534
S'sat tle/cubesat/sat182'
p535
sS'SL-4 R/B'
p536
S'sat tle/tle-new/sat24'
p537
sS'FORMOSAT-2 (ROCSAT 2)'
p538
S'sat tle/resource/sat11'
p539
sS'ORBCOMM FM04 [+]'
p540
S'sat tle/orbcomm/sat12'
p541
sS'FLOCK 3P-75'
p542
S'sat tle/cubesat/sat177'
p543
sS'FIREBIRD 4'
p544
S'sat tle/cubesat/sat67'
p545
sS'FLOCK 3P-73'
p546
S'sat tle/cubesat/sat179'
p547
sS'FLOCK 3P-72'
p548
S'sat tle/cubesat/sat249'
p549
sS'GLOBALSTAR M039 [-]'
p550
S'sat tle/globalstar/sat44'
p551
sS'FLOCK 3P-70'
p552
S'sat tle/cubesat/sat178'
p553
sS'GSAT0211 (PRN E02)'
p554
S'sat tle/galileo/sat12'
p555
sS'GPS BIIRM-8 (PRN 05)'
p556
S'sat tle/gps-ops/sat18'
p557
sS'GALAXY 17 (G-17)'
p558
S'sat tle/intelsat/sat38'
p559
sS'INTELSAT 11 (IS-11)'
p560
S'sat tle/intelsat/sat41'
p561
sS'GPS BIIF-6  (PRN 06)'
p562
S'sat tle/gps-ops/sat24'
p563
sS'FLOCK 3P-82'
p564
S'sat tle/cubesat/sat244'
p565
sS'RESURS P2'
p566
S'sat tle/science/sat57'
p567
sS'APRIZESAT 10'
p568
S'sat tle/engineering/sat23'
p569
sS'AEROCUBE 6B'
p570
S'sat tle/cubesat/sat64'
p571
sS'GSAT0206 (PRN E30)'
p572
S'sat tle/galileo/sat9'
p573
sS'CANX-7'
p574
S'sat tle/cubesat/sat131'
p575
sS'CANX-5'
p576
S'sat tle/engineering/sat26'
p577
sS'FUNCUBE-1 (AO-73)'
p578
S'sat tle/cubesat/sat38'
p579
sS'CANX-2'
p580
S'sat tle/cubesat/sat8'
p581
sS'IRIDIUM 104 [+]'
p582
S'sat tle/iridium-NEXT/sat5'
p583
sS'ENVISAT'
p584
S'sat tle/visual/sat112'
p585
sS'GLOBALSTAR M095 [+]'
p586
S'sat tle/globalstar/sat83'
p587
sS'QZS-1 (QZSS/PRN 183)'
p588
S'sat tle/sbas/sat5'
p589
sS'YAMAL 401'
p590
S'sat tle/geo/sat358'
p591
sS'YAMAL 402'
p592
S'sat tle/geo/sat308'
p593
sS'GALAXY 3C (G-3C)'
p594
S'sat tle/intelsat/sat20'
p595
sS'FLOCK 1C-2'
p596
S'sat tle/cubesat/sat48'
p597
sS'ALCOMSAT-1'
p598
S'sat tle/tle-new/sat30'
p599
sS'FLOCK 1C-4'
p600
S'sat tle/cubesat/sat49'
p601
sS'FENGYUN 1C DEB'
p602
S'sat tle/1999-025/sat2623'
p603
sS'FLOCK 1C-11'
p604
S'sat tle/cubesat/sat51'
p605
sS'FLOCK 1C-7'
p606
S'sat tle/cubesat/sat45'
p607
sS'GSAT0202 (PRN E14)'
p608
S'sat tle/galileo/sat5'
p609
sS'IRIDIUM 35 [+]'
p610
S'sat tle/iridium/sat28'
p611
sS'WORLDVIEW-3 (WV-3)'
p612
S'sat tle/resource/sat85'
p613
sS'GLOBALSTAR M051 [-]'
p614
S'sat tle/globalstar/sat26'
p615
sS'NOAA 1 [-]'
p616
S'sat tle/noaa/sat0'
p617
sS'NAYIF-1 (EO-88)'
p618
S'sat tle/cubesat/sat215'
p619
sS'CICERO 6'
p620
S'sat tle/cubesat/sat314'
p621
sS'RASCOM-QAF 1R'
p622
S'sat tle/geo/sat241'
p623
sS'COSMOS 2429 [-]'
p624
S'sat tle/musson/sat6'
p625
sS'APRIZESAT 2'
p626
S'sat tle/x-comm/sat0'
p627
sS'APRIZESAT 3'
p628
S'sat tle/engineering/sat8'
p629
sS'APRIZESAT 1'
p630
S'sat tle/x-comm/sat3'
p631
sS'APRIZESAT 6'
p632
S'sat tle/engineering/sat11'
p633
sS'APRIZESAT 7'
p634
S'sat tle/engineering/sat17'
p635
sS'APRIZESAT 4'
p636
S'sat tle/engineering/sat7'
p637
sS'APRIZESAT 5'
p638
S'sat tle/engineering/sat10'
p639
sS'STAR ONE D1'
p640
S'sat tle/geo/sat422'
p641
sS'ARIRANG-3 (KOMPSAT-3)'
p642
S'sat tle/resource/sat61'
p643
sS'PATHFINDER 1'
p644
S'sat tle/resource/sat124'
p645
sS'FLOCK 2K-20'
p646
S'sat tle/cubesat/sat363'
p647
sS'SAUDICOMSAT 3'
p648
S'sat tle/x-comm/sat8'
p649
sS'GOES 3 [-]'
p650
S'sat tle/goes/sat2'
p651
sS'ORBCOMM FM26 [-]'
p652
S'sat tle/orbcomm/sat26'
p653
sS'DEIMOS-2'
p654
S'sat tle/resource/sat81'
p655
sS'RADUGA 14 [-]'
p656
S'sat tle/raduga/sat13'
p657
sS'GLOBALSTAR M056 [-]'
p658
S'sat tle/globalstar/sat42'
p659
sS'ZDPS 2B'
p660
S'sat tle/amateur/sat50'
p661
sS'ZDPS 2A'
p662
S'sat tle/amateur/sat49'
p663
sS'RADUGA 17 [-]'
p664
S'sat tle/raduga/sat16'
p665
sS'GLONASS-K 2'
p666
S'sat tle/sarsat/sat38'
p667
sS'GLONASS-K 1'
p668
S'sat tle/sarsat/sat19'
p669
sS'KAZSAT-3'
p670
S'sat tle/geo/sat344'
p671
sS'KAZSAT-2'
p672
S'sat tle/geo/sat263'
p673
sS'SNUSAT-1'
p674
S'sat tle/cubesat/sat277'
p675
sS'AISAT'
p676
S'sat tle/engineering/sat24'
p677
sS'EYESAT-1 (AO-27)'
p678
S'sat tle/cubesat/sat0'
p679
sS'CELESTIS-02'
p680
S'sat tle/other/sat0'
p681
sS'CELESTIS-03'
p682
S'sat tle/other/sat1'
p683
sS'BSAT-4A'
p684
S'sat tle/geo/sat449'
p685
sS'VENESAT-1'
p686
S'sat tle/geo/sat197'
p687
sS'SAUDICOMSAT 1'
p688
S'sat tle/x-comm/sat1'
p689
sS'SAUDICOMSAT 2'
p690
S'sat tle/x-comm/sat2'
p691
sS'ATHENA-FIDUS'
p692
S'sat tle/geo/sat336'
p693
sS'SAUDICOMSAT 4'
p694
S'sat tle/x-comm/sat9'
p695
sS'SAUDICOMSAT 5'
p696
S'sat tle/x-comm/sat7'
p697
sS'SAUDICOMSAT 6'
p698
S'sat tle/x-comm/sat6'
p699
sS'SAUDICOMSAT 7'
p700
S'sat tle/x-comm/sat5'
p701
sS'CRE (WAAS/PRN 138)'
p702
S'sat tle/sbas/sat1'
p703
sS'D-SAT'
p704
S'sat tle/cubesat/sat315'
p705
sS'NPP [+]'
p706
S'sat tle/noaa/sat20'
p707
sS'ZHONGXING-20'
p708
S'sat tle/geo/sat102'
p709
sS'GPS BIIR-13'
p710
S'sat tle/sarsat/sat6'
p711
sS'GPS BIIR-12'
p712
S'sat tle/sarsat/sat5'
p713
sS'GPS BIIR-11'
p714
S'sat tle/sarsat/sat4'
p715
sS'INTELSAT 906 (IS-906)'
p716
S'sat tle/intelsat/sat21'
p717
sS'GSAT0102 (PRN E12)'
p718
S'sat tle/galileo/sat1'
p719
sS'COSMOS 1544'
p720
S'sat tle/visual/sat35'
p721
sS'LUCH 5B (SDCM/PRN 125)'
p722
S'sat tle/sbas/sat10'
p723
sS'CXO'
p724
S'sat tle/science/sat5'
p725
sS'IRIDIUM 63 [-]'
p726
S'sat tle/iridium/sat56'
p727
sS'LEMUR-2-NOGUECORREIG'
p728
S'sat tle/cubesat/sat194'
p729
sS'SPROUT'
p730
S'sat tle/amateur/sat43'
p731
sS'HEAD-1'
p732
S'sat tle/tle-new/sat2'
p733
sS'SARSAT 12 (NOAA 19)'
p734
S'sat tle/sarsat/sat15'
p735
sS'ORBCOMM FM14 [+]'
p736
S'sat tle/orbcomm/sat19'
p737
sS'TECHSAT 1B (GO-32)'
p738
S'sat tle/amateur/sat7'
p739
sS'IRIDIUM 80 [+]'
p740
S'sat tle/iridium/sat72'
p741
sS'ASNARO'
p742
S'sat tle/resource/sat88'
p743
sS'INTELSAT 902 (IS-902)'
p744
S'sat tle/intelsat/sat14'
p745
sS'FLOCK 3P-41'
p746
S'sat tle/cubesat/sat202'
p747
sS'RADUGA 21 [-]'
p748
S'sat tle/raduga/sat20'
p749
sS'GLOBALSTAR M025 [-]'
p750
S'sat tle/globalstar/sat20'
p751
sS'MOLNIYA 2-10'
p752
S'sat tle/molniya/sat1'
p753
sS'HIMAWARI-9'
p754
S'sat tle/geo/sat416'
p755
sS'HIMAWARI-8'
p756
S'sat tle/geo/sat351'
p757
sS'FOX-1B (AO-91)'
p758
S'sat tle/amateur/sat77'
p759
sS'COSMOS 2414 [+]'
p760
S'sat tle/musson/sat5'
p761
sS'FLYING LAPTOP'
p762
S'sat tle/education/sat4'
p763
sS'SWISSCUBE'
p764
S'sat tle/cubesat/sat10'
p765
sS'CELTEE 1'
p766
S'sat tle/cubesat/sat134'
p767
sS'ORBCOMM FM31 [+]'
p768
S'sat tle/orbcomm/sat30'
p769
sS'GLOBALSTAR M035 [-]'
p770
S'sat tle/globalstar/sat24'
p771
sS'NUSAT-3 (MILANESAT)'
p772
S'sat tle/resource/sat131'
p773
sS'CUTE-1.7+APD II (CO-65)'
p774
S'sat tle/cubesat/sat4'
p775
sS'INTELSAT 14 (IS-14)'
p776
S'sat tle/intelsat/sat48'
p777
sS'TKSAT-1 (TUPAC KATARI)'
p778
S'sat tle/geo/sat330'
p779
sS'CARTOSAT-2E'
p780
S'sat tle/resource/sat133'
p781
sS'CARTOSAT-2D'
p782
S'sat tle/resource/sat128'
p783
sS'IRIDIUM 33'
p784
S'sat tle/iridium-33-debris/sat0'
p785
sS'CARTOSAT-2A'
p786
S'sat tle/resource/sat27'
p787
sS'CARTOSAT-2C'
p788
S'sat tle/resource/sat114'
p789
sS'CARTOSAT-2B'
p790
S'sat tle/resource/sat49'
p791
sS'DELFI-C3 (DO-64)'
p792
S'sat tle/cubesat/sat7'
p793
sS'GSAT0211 (GALILEO 14)'
p794
S'sat tle/sarsat/sat49'
p795
sS'NOVA I [?]'
p796
S'sat tle/nnss/sat6'
p797
sS'ORBCOMM FM22 [-]'
p798
S'sat tle/orbcomm/sat22'
p799
sS'KOREASAT 5 (MUGUNGWHA 5)'
p800
S'sat tle/geo/sat148'
p801
sS'LEMUR-2-ROBMOORE'
p802
S'sat tle/cubesat/sat290'
p803
sS'POLYITAN-1'
p804
S'sat tle/cubesat/sat60'
p805
sS'RHESSI'
p806
S'sat tle/science/sat14'
p807
sS'FLOCK 3P-69'
p808
S'sat tle/cubesat/sat218'
p809
sS'FLOCK 3P-64'
p810
S'sat tle/cubesat/sat232'
p811
sS'FLOCK 3P-65'
p812
S'sat tle/cubesat/sat226'
p813
sS'FLOCK 3P-66'
p814
S'sat tle/cubesat/sat225'
p815
sS'FLOCK 3P-67'
p816
S'sat tle/cubesat/sat200'
p817
sS'FLOCK 3P-60'
p818
S'sat tle/cubesat/sat174'
p819
sS'FLOCK 3P-61'
p820
S'sat tle/cubesat/sat207'
p821
sS'FLOCK 3P-62'
p822
S'sat tle/cubesat/sat234'
p823
sS'FLOCK 3P-63'
p824
S'sat tle/cubesat/sat233'
p825
sS'HYLAS 1'
p826
S'sat tle/geo/sat249'
p827
sS'HYLAS 2'
p828
S'sat tle/geo/sat295'
p829
sS'NANOSAT-1'
p830
S'sat tle/x-comm/sat4'
p831
sS'GLOBALSTAR M082 [+]'
p832
S'sat tle/globalstar/sat74'
p833
sS'PEGASUS'
p834
S'sat tle/cubesat/sat306'
p835
sS'ORBCOMM FM10 [+]'
p836
S'sat tle/orbcomm/sat4'
p837
sS'METEOR PRIRODA'
p838
S'sat tle/visual/sat25'
p839
sS'GPS BIIF-12  (PRN 32)'
p840
S'sat tle/gps-ops/sat30'
p841
sS'IRIDIUM 90 [B]'
p842
S'sat tle/iridium/sat82'
p843
sS'INS-1B'
p844
S'sat tle/cubesat/sat152'
p845
sS'NEOSSAT'
p846
S'sat tle/science/sat42'
p847
sS'DUCHIFAT-1'
p848
S'sat tle/cubesat/sat41'
p849
sS'GLOBALSTAR M034 [-]'
p850
S'sat tle/globalstar/sat45'
p851
sS'RADUGA 7 [-]'
p852
S'sat tle/raduga/sat6'
p853
sS'UK-DMC 2'
p854
S'sat tle/dmc/sat5'
p855
sS'LEMUR-2-TRUTNAHD'
p856
S'sat tle/cubesat/sat253'
p857
sS'AEROCUBE 8C'
p858
S'sat tle/cubesat/sat137'
p859
sS'LILACSAT-1'
p860
S'sat tle/cubesat/sat275'
p861
sS'SKYSAT-C10'
p862
S'sat tle/resource/sat136'
p863
sS'SKYSAT-C11'
p864
S'sat tle/resource/sat135'
p865
sS'GSAT0212 (GALILEO 16)'
p866
S'sat tle/sarsat/sat52'
p867
sS'IRIDIUM 105 [+]'
p868
S'sat tle/iridium-NEXT/sat4'
p869
sS'RADUGA-1M 2'
p870
S'sat tle/geo/sat227'
p871
sS'RADUGA-1M 3'
p872
S'sat tle/geo/sat327'
p873
sS'TIANTUO 2'
p874
S'sat tle/engineering/sat28'
p875
sS'GLOBALSTAR M014 [-]'
p876
S'sat tle/globalstar/sat4'
p877
sS'AEROCUBE 8D'
p878
S'sat tle/cubesat/sat136'
p879
sS'ORBCOMM FM03 [-]'
p880
S'sat tle/orbcomm/sat11'
p881
sS'GPS BIIF-2  (PRN 01)'
p882
S'sat tle/gps-ops/sat20'
p883
sS'NUSAT-2 (BATATA)'
p884
S'sat tle/resource/sat113'
p885
sS'INTELSAT 1R (IS-1R)'
p886
S'sat tle/intelsat/sat11'
p887
sS'THOR III'
p888
S'sat tle/geo/sat28'
p889
sS'AOR-E (EGNOS/PRN 120)'
p890
S'sat tle/sbas/sat0'
p891
sS'ISIS 1'
p892
S'sat tle/visual/sat6'
p893
sS'CZ-2C R/B'
p894
S'sat tle/visual/sat131'
p895
sS'FENGYUN 2F'
p896
S'sat tle/geo/sat279'
p897
sS'FENGYUN 2G'
p898
S'sat tle/geo/sat360'
p899
sS'FENGYUN 2D'
p900
S'sat tle/geo/sat154'
p901
sS'IRIDIUM 70 [+]'
p902
S'sat tle/iridium/sat64'
p903
sS'SARSAT 10 (NOAA 18)'
p904
S'sat tle/sarsat/sat7'
p905
sS'GPS BIIF-3  (PRN 24)'
p906
S'sat tle/gps-ops/sat21'
p907
sS'IRIDIUM 7 [+]'
p908
S'sat tle/iridium/sat0'
p909
sS'EXPRESS-AM33'
p910
S'sat tle/geo/sat175'
p911
sS'INTELSAT 36 (IS-36)'
p912
S'sat tle/intelsat/sat66'
p913
sS'GALAXY 12 (G-12)'
p914
S'sat tle/intelsat/sat23'
p915
sS'MOLNIYA 3-7'
p916
S'sat tle/molniya/sat10'
p917
sS'QBITO'
p918
S'sat tle/cubesat/sat278'
p919
sS'MOLNIYA 3-3'
p920
S'sat tle/molniya/sat6'
p921
sS'GORIZONT 9 [-]'
p922
S'sat tle/gorizont/sat8'
p923
sS'MOLNIYA 3-8'
p924
S'sat tle/molniya/sat11'
p925
sS'NOAA 18 [B]'
p926
S'sat tle/noaa/sat18'
p927
sS'NUSAT-1 (FRESCO)'
p928
S'sat tle/resource/sat112'
p929
sS'MOLNIYA 3-31'
p930
S'sat tle/molniya/sat25'
p931
sS'IRIDIUM 11 [+]'
p932
S'sat tle/iridium/sat78'
p933
sS'GPS BIIRM-3 (PRN 12)'
p934
S'sat tle/gps-ops/sat14'
p935
sS'ORSTED'
p936
S'sat tle/science/sat4'
p937
sS'OSCAR 25 [?]'
p938
S'sat tle/nnss/sat16'
p939
sS'IRIDIUM 49 [+]'
p940
S'sat tle/iridium/sat42'
p941
sS'SUPERBIRD-C2'
p942
S'sat tle/geo/sat192'
p943
sS'THOR 7'
p944
S'sat tle/geo/sat366'
p945
sS'N-SAT-110 (JCSAT-110)'
p946
S'sat tle/geo/sat55'
p947
sS'NOAA 3 [-]'
p948
S'sat tle/noaa/sat2'
p949
sS'AMC-7 (GE-7)'
p950
S'sat tle/ses/sat12'
p951
sS'ALPHASAT'
p952
S'sat tle/geo/sat320'
p953
sS'GSAT-9'
p954
S'sat tle/geo/sat432'
p955
sS'GSAT0213 (PRN E04)'
p956
S'sat tle/galileo/sat16'
p957
sS'GORIZONT 33 [-]'
p958
S'sat tle/gorizont/sat32'
p959
sS'GSAT-6'
p960
S'sat tle/geo/sat374'
p961
sS'GSAT-7'
p962
S'sat tle/geo/sat323'
p963
sS'GALAXY 13 (HORIZONS-1)'
p964
S'sat tle/intelsat/sat25'
p965
sS'GPS BIIR-08'
p966
S'sat tle/sarsat/sat3'
p967
sS'LUCH 5V (SDCM/PRN 141)'
p968
S'sat tle/sbas/sat12'
p969
sS'AMC-2 (GE-2)'
p970
S'sat tle/ses/sat3'
p971
sS'POPACS 3'
p972
S'sat tle/cubesat/sat28'
p973
sS'GPS BIIR-07'
p974
S'sat tle/sarsat/sat1'
p975
sS'IRIDIUM 123 [+]'
p976
S'sat tle/iridium-NEXT/sat11'
p977
sS'IRIDIUM 100 [+]'
p978
S'sat tle/iridium-NEXT/sat21'
p979
sS'SES-9'
p980
S'sat tle/ses/sat63'
p981
sS'SENTINEL-5P'
p982
S'sat tle/resource/sat134'
p983
sS'ECHOSTAR 14'
p984
S'sat tle/geo/sat231'
p985
sS'RADUGA 6 [-]'
p986
S'sat tle/raduga/sat5'
p987
sS'ECHOSTAR 19'
p988
S'sat tle/geo/sat421'
p989
sS'SAUDISAT 4'
p990
S'sat tle/engineering/sat20'
p991
sS'SAUDISAT 2'
p992
S'sat tle/education/sat1'
p993
sS'IRIDIUM 94 [+]'
p994
S'sat tle/iridium/sat83'
p995
sS'AMC-1 (GE-1)'
p996
S'sat tle/ses/sat2'
p997
sS'ECHOSTAR 18'
p998
S'sat tle/geo/sat408'
p999
sS'BEIDOU M3-S'
p1000
S'sat tle/beidou/sat17'
p1001
sS'YAOGAN 21'
p1002
S'sat tle/resource/sat86'
p1003
sS'YAOGAN 22'
p1004
S'sat tle/resource/sat87'
p1005
sS'YAOGAN 23'
p1006
S'sat tle/resource/sat93'
p1007
sS'YAOGAN 24'
p1008
S'sat tle/resource/sat94'
p1009
sS'YAOGAN 26'
p1010
S'sat tle/resource/sat97'
p1011
sS'YAOGAN 27'
p1012
S'sat tle/resource/sat102'
p1013
sS'YAOGAN 28'
p1014
S'sat tle/resource/sat104'
p1015
sS'YAOGAN 29'
p1016
S'sat tle/resource/sat105'
p1017
sS'SARSAT 13 (METOP-B)'
p1018
S'sat tle/sarsat/sat25'
p1019
sS'LEMUR-2-WINGO'
p1020
S'sat tle/cubesat/sat143'
p1021
sS'LEMUR-2-FURIAUS'
p1022
S'sat tle/cubesat/sat324'
p1023
sS'DIRECTV 7S'
p1024
S'sat tle/intelsat/sat26'
p1025
sS'ASTROSAT'
p1026
S'sat tle/science/sat62'
p1027
sS'HXMT'
p1028
S'sat tle/science/sat65'
p1029
sS'GSAT0208 (GALILEO 11)'
p1030
S'sat tle/sarsat/sat47'
p1031
sS'IRIDIUM 69 [-]'
p1032
S'sat tle/iridium/sat62'
p1033
sS'LARES'
p1034
S'sat tle/geodetic/sat7'
p1035
sS'GLOBALSTAR M050 [-]'
p1036
S'sat tle/globalstar/sat37'
p1037
sS'IRIDIUM 73 [-]'
p1038
S'sat tle/iridium/sat66'
p1039
sS'CHINASAT 1A (ZX 1A)'
p1040
S'sat tle/geo/sat267'
p1041
sS'MOLNIYA 1-36'
p1042
S'sat tle/molniya/sat9'
p1043
sS'MOLNIYA 1-32'
p1044
S'sat tle/molniya/sat7'
p1045
sS'IRIDIUM 68 [+]'
p1046
S'sat tle/iridium/sat61'
p1047
sS'GORIZONT 17 [-]'
p1048
S'sat tle/gorizont/sat16'
p1049
sS'LEMUR-2-SPIROVISION'
p1050
S'sat tle/cubesat/sat291'
p1051
sS'CUBEBUG-2 (LO-74)'
p1052
S'sat tle/cubesat/sat36'
p1053
sS'CALIPSO'
p1054
S'sat tle/science/sat28'
p1055
sS'RADUGA 28 [-]'
p1056
S'sat tle/raduga/sat29'
p1057
sS'LEMUR-2-SAM-AMELIA'
p1058
S'sat tle/cubesat/sat303'
p1059
sS'SAPPHIRE'
p1060
S'sat tle/military/sat4'
p1061
sS'GLOBALSTAR M093 [+]'
p1062
S'sat tle/globalstar/sat79'
p1063
sS'IRIDIUM 54 [+]'
p1064
S'sat tle/iridium/sat45'
p1065
sS'EUTELSAT 113 WEST A'
p1066
S'sat tle/geo/sat142'
p1067
sS'FLOCK 2K-39'
p1068
S'sat tle/cubesat/sat344'
p1069
sS'FLOCK 2K-38'
p1070
S'sat tle/cubesat/sat346'
p1071
sS'FLOCK 2K-33'
p1072
S'sat tle/cubesat/sat357'
p1073
sS'CLOUDSAT'
p1074
S'sat tle/science/sat27'
p1075
sS'FLOCK 2K-31'
p1076
S'sat tle/cubesat/sat347'
p1077
sS'FLOCK 2K-30'
p1078
S'sat tle/cubesat/sat350'
p1079
sS'FLOCK 2K-37'
p1080
S'sat tle/cubesat/sat345'
p1081
sS'FLOCK 2K-36'
p1082
S'sat tle/cubesat/sat354'
p1083
sS'FLOCK 2K-35'
p1084
S'sat tle/cubesat/sat355'
p1085
sS'FLOCK 2K-34'
p1086
S'sat tle/cubesat/sat356'
p1087
sS'JCSAT-4A'
p1088
S'sat tle/geo/sat32'
p1089
sS'GORIZONT 23 [-]'
p1090
S'sat tle/gorizont/sat22'
p1091
sS'RAPIDEYE 3'
p1092
S'sat tle/resource/sat32'
p1093
sS'RAPIDEYE 2'
p1094
S'sat tle/resource/sat29'
p1095
sS'RAPIDEYE 1'
p1096
S'sat tle/resource/sat31'
p1097
sS'IRIDIUM 136 [+]'
p1098
S'sat tle/iridium-NEXT/sat27'
p1099
sS'FLOCK 3P-55'
p1100
S'sat tle/cubesat/sat239'
p1101
sS'FLOCK 3P-54'
p1102
S'sat tle/cubesat/sat212'
p1103
sS'RAPIDEYE 5'
p1104
S'sat tle/resource/sat30'
p1105
sS'RAPIDEYE 4'
p1106
S'sat tle/resource/sat33'
p1107
sS'GLOBALSTAR M079 [+]'
p1108
S'sat tle/globalstar/sat60'
p1109
sS'FLOCK 3P-58'
p1110
S'sat tle/cubesat/sat175'
p1111
sS'ORBCOMM FM01 [-]'
p1112
S'sat tle/orbcomm/sat1'
p1113
sS'LAPAN-TUBSAT'
p1114
S'sat tle/resource/sat18'
p1115
sS'IRIDIUM 96 [+]'
p1116
S'sat tle/iridium/sat85'
p1117
sS'CBERS 4'
p1118
S'sat tle/resource/sat95'
p1119
sS'YAOGAN-30 D'
p1120
S'sat tle/tle-new/sat19'
p1121
sS'ORBCOMM FM35 [+]'
p1122
S'sat tle/orbcomm/sat34'
p1123
sS'YAOGAN-30 F'
p1124
S'sat tle/tle-new/sat21'
p1125
sS'MIRATA'
p1126
S'sat tle/tle-new/sat6'
p1127
sS'SOYUZ-MS 06'
p1128
S'sat tle/stations/sat80'
p1129
sS'SOYUZ-MS 05'
p1130
S'sat tle/stations/sat79'
p1131
sS'ASIASAT 3S'
p1132
S'sat tle/geo/sat34'
p1133
sS'FENGYUN 3A'
p1134
S'sat tle/weather/sat15'
p1135
sS'FENGYUN 3C'
p1136
S'sat tle/weather/sat27'
p1137
sS'FENGYUN 3B'
p1138
S'sat tle/weather/sat22'
p1139
sS'FENGYUN 3D'
p1140
S'sat tle/weather/sat44'
p1141
sS'ZHUHAI-1 02 (CAS 4B)'
p1142
S'sat tle/resource/sat130'
p1143
sS'O3B FM10'
p1144
S'sat tle/other-comm/sat8'
p1145
sS'O3B FM11'
p1146
S'sat tle/other-comm/sat9'
p1147
sS'O3B FM12'
p1148
S'sat tle/other-comm/sat10'
p1149
sS'EXPRESS-AM3'
p1150
S'sat tle/geo/sat123'
p1151
sS'EXPRESS-AM6'
p1152
S'sat tle/geo/sat355'
p1153
sS'EXPRESS-AM7'
p1154
S'sat tle/geo/sat364'
p1155
sS'EXPRESS-AM5'
p1156
S'sat tle/geo/sat331'
p1157
sS'TIROS N [P]'
p1158
S'sat tle/noaa/sat5'
p1159
sS'EXPRESS-AM8'
p1160
S'sat tle/geo/sat377'
p1161
sS'QZS-2 (QZSS/PRN 184)'
p1162
S'sat tle/sbas/sat15'
p1163
sS'CSUNSAT 1'
p1164
S'sat tle/cubesat/sat267'
p1165
sS'EXALTA-1'
p1166
S'sat tle/cubesat/sat284'
p1167
sS'GRACE-1'
p1168
S'sat tle/geodetic/sat5'
p1169
sS'GRACE-2'
p1170
S'sat tle/geodetic/sat6'
p1171
sS'BEESAT'
p1172
S'sat tle/cubesat/sat11'
p1173
sS'IRIDIUM 124 [+]'
p1174
S'sat tle/iridium-NEXT/sat17'
p1175
sS'IRIDIUM 118 [+]'
p1176
S'sat tle/iridium-NEXT/sat14'
p1177
sS'NANOSATC-BR1'
p1178
S'sat tle/cubesat/sat43'
p1179
sS'SWARM C'
p1180
S'sat tle/science/sat53'
p1181
sS'GLOBALSTAR M067 [+]'
p1182
S'sat tle/globalstar/sat56'
p1183
sS'SWARM A'
p1184
S'sat tle/science/sat52'
p1185
sS'GSAT0203 (GALILEO 7)'
p1186
S'sat tle/sarsat/sat40'
p1187
sS'TIANWANG 1B (TW-1B)'
p1188
S'sat tle/cubesat/sat72'
p1189
sS'GLOBALSTAR M090 [+]'
p1190
S'sat tle/globalstar/sat76'
p1191
sS'GLOBALSTAR M086 [+]'
p1192
S'sat tle/globalstar/sat77'
p1193
sS'GALAXY 11 (G-11)'
p1194
S'sat tle/intelsat/sat7'
p1195
sS'BRITE-AUSTRIA'
p1196
S'sat tle/cubesat/sat17'
p1197
sS'INTELSAT 25 (IS-25)'
p1198
S'sat tle/intelsat/sat45'
p1199
sS'IRIDIUM 37 [+]'
p1200
S'sat tle/iridium/sat30'
p1201
sS'INSAT-4A'
p1202
S'sat tle/geo/sat132'
p1203
sS'INSAT-4B'
p1204
S'sat tle/geo/sat158'
p1205
sS'IRIDIUM 46 [+]'
p1206
S'sat tle/iridium/sat17'
p1207
sS'INTERCOSMOS 24'
p1208
S'sat tle/visual/sat66'
p1209
sS'INTERCOSMOS 25'
p1210
S'sat tle/visual/sat84'
p1211
sS'WISE'
p1212
S'sat tle/science/sat35'
p1213
sS'RESURS-DK 1'
p1214
S'sat tle/resource/sat16'
p1215
sS'WASEDA-SAT3'
p1216
S'sat tle/cubesat/sat146'
p1217
sS'IRIDIUM 29 [-]'
p1218
S'sat tle/iridium/sat22'
p1219
sS'ELEKTRO-L 1'
p1220
S'sat tle/sarsat/sat18'
p1221
sS'ELEKTRO-L 2'
p1222
S'sat tle/geo/sat389'
p1223
sS'GLOBALSTAR M042 [-]'
p1224
S'sat tle/globalstar/sat19'
p1225
sS'IRIDIUM 98 [+]'
p1226
S'sat tle/iridium/sat87'
p1227
sS'GSAT0207 (PRN E07)'
p1228
S'sat tle/galileo/sat14'
p1229
sS'NOAA 15 [B]'
p1230
S'sat tle/noaa/sat15'
p1231
sS'MOLNIYA 3-20'
p1232
S'sat tle/molniya/sat18'
p1233
sS'MOLNIYA 3-24'
p1234
S'sat tle/molniya/sat22'
p1235
sS'MOLNIYA 3-27'
p1236
S'sat tle/molniya/sat23'
p1237
sS'WORLDVIEW-4 (WV-4)'
p1238
S'sat tle/resource/sat125'
p1239
sS'SUPERBIRD-B2'
p1240
S'sat tle/geo/sat43'
p1241
sS'SCD 2'
p1242
S'sat tle/resource/sat2'
p1243
sS'SCD 1'
p1244
S'sat tle/resource/sat0'
p1245
sS'OCO 2'
p1246
S'sat tle/science/sat55'
p1247
sS'ANIK G1'
p1248
S'sat tle/geo/sat315'
p1249
sS'CLUSTER II-FM6 (SALSA)'
p1250
S'sat tle/science/sat8'
p1251
sS'AMC-3 (GE-3)'
p1252
S'sat tle/ses/sat4'
p1253
sS'RADUGA 27 [-]'
p1254
S'sat tle/raduga/sat28'
p1255
sS'HIMAWARI-7 (MTSAT-2)'
p1256
S'sat tle/geo/sat136'
p1257
sS'ALSAT 1N'
p1258
S'sat tle/cubesat/sat132'
p1259
sS'ALSAT 1B'
p1260
S'sat tle/resource/sat123'
p1261
sS'GEOEYE 1'
p1262
S'sat tle/resource/sat36'
p1263
sS'IRIDIUM 28 [-]'
p1264
S'sat tle/iridium/sat25'
p1265
sS'AKARI (ASTRO-F)'
p1266
S'sat tle/visual/sat127'
p1267
sS'RADIO ROSTO (RS-15)'
p1268
S'sat tle/amateur/sat5'
p1269
sS'GALAXY 16 (G-16)'
p1270
S'sat tle/intelsat/sat35'
p1271
sS'SORCE'
p1272
S'sat tle/science/sat17'
p1273
sS'GLOBALSTAR M028 [-]'
p1274
S'sat tle/globalstar/sat31'
p1275
sS'ORBCOMM FM09 [+]'
p1276
S'sat tle/orbcomm/sat7'
p1277
sS'IRIDIUM 109 [+]'
p1278
S'sat tle/iridium-NEXT/sat2'
p1279
sS'NSIGHT-1'
p1280
S'sat tle/cubesat/sat276'
p1281
sS'IRIDIUM 44 [-]'
p1282
S'sat tle/iridium/sat38'
p1283
sS'LEMUR-2-ANGELA'
p1284
S'sat tle/cubesat/sat288'
p1285
sS'ORBCOMM FM115 [+]'
p1286
S'sat tle/orbcomm/sat55'
p1287
sS'EUTELSAT 172A (GE-23)'
p1288
S'sat tle/geo/sat134'
p1289
sS'LEMUR-2-XUENITERENCE'
p1290
S'sat tle/cubesat/sat295'
p1291
sS'KORONAS-FOTON'
p1292
S'sat tle/visual/sat136'
p1293
sS'IRIDIUM 112 [+]'
p1294
S'sat tle/iridium-NEXT/sat8'
p1295
sS'JCSAT-5A'
p1296
S'sat tle/geo/sat139'
p1297
sS'WORLDVIEW-1 (WV-1)'
p1298
S'sat tle/resource/sat23'
p1299
sS'OPS 5712 (P/L 160)'
p1300
S'sat tle/radar/sat5'
p1301
sS'GSAT-10 (GAGAN/PRN 128)'
p1302
S'sat tle/sbas/sat9'
p1303
sS'COSMOS 2459 (731)'
p1304
S'sat tle/glo-ops/sat9'
p1305
sS'MOLNIYA 1-29'
p1306
S'sat tle/molniya/sat3'
p1307
sS'ORBCOMM FM37 [-]'
p1308
S'sat tle/orbcomm/sat40'
p1309
sS'SPIRALE A'
p1310
S'sat tle/military/sat2'
p1311
sS'SPIRALE B'
p1312
S'sat tle/military/sat3'
p1313
sS'INTELSAT NEW DAWN'
p1314
S'sat tle/intelsat/sat54'
p1315
sS'GSAT0103 (GALILEO-FM3)'
p1316
S'sat tle/sarsat/sat27'
p1317
sS'EUTELSAT 16A'
p1318
S'sat tle/geo/sat274'
p1319
sS'NOAA 2 [-]'
p1320
S'sat tle/noaa/sat1'
p1321
sS'EUTELSAT 16C'
p1322
S'sat tle/geo/sat45'
p1323
sS'INTELSAT 35E (IS-35E)'
p1324
S'sat tle/intelsat/sat69'
p1325
sS'EAGLESAT 1'
p1326
S'sat tle/tle-new/sat9'
p1327
sS'EUTELSAT 36B'
p1328
S'sat tle/geo/sat223'
p1329
sS'TIGRISAT'
p1330
S'sat tle/cubesat/sat61'
p1331
sS'ORBCOMM FM19 [+]'
p1332
S'sat tle/orbcomm/sat15'
p1333
sS'IRS-P6 (RESOURCESAT-1)'
p1334
S'sat tle/resource/sat9'
p1335
sS'STARS-C'
p1336
S'sat tle/cubesat/sat144'
p1337
sS'INTELSAT 32E (IS-32E)'
p1338
S'sat tle/intelsat/sat68'
p1339
sS'GSAT0104 (PRN E20)'
p1340
S'sat tle/galileo/sat3'
p1341
sS'STPSAT-3'
p1342
S'sat tle/engineering/sat16'
p1343
sS'FLOCK 3P-68'
p1344
S'sat tle/cubesat/sat201'
p1345
sS'FLOCK 1C-10'
p1346
S'sat tle/cubesat/sat42'
p1347
sS'INTELSAT 16 (IS-16)'
p1348
S'sat tle/intelsat/sat51'
p1349
sS'SAUDISAT 1C'
p1350
S'sat tle/education/sat0'
p1351
sS'FLOCK 2K-28'
p1352
S'sat tle/cubesat/sat358'
p1353
sS'FLOCK 2K-29'
p1354
S'sat tle/cubesat/sat349'
p1355
sS'ERBS'
p1356
S'sat tle/visual/sat37'
p1357
sS'FLOCK 2K-21'
p1358
S'sat tle/cubesat/sat338'
p1359
sS'FLOCK 2K-22'
p1360
S'sat tle/cubesat/sat339'
p1361
sS'FLOCK 2K-23'
p1362
S'sat tle/cubesat/sat337'
p1363
sS'FLOCK 2K-24'
p1364
S'sat tle/cubesat/sat335'
p1365
sS'FLOCK 2K-25'
p1366
S'sat tle/cubesat/sat362'
p1367
sS'FLOCK 2K-26'
p1368
S'sat tle/cubesat/sat361'
p1369
sS'FLOCK 2K-27'
p1370
S'sat tle/cubesat/sat360'
p1371
sS'XM-3 (RHYTHM)'
p1372
S'sat tle/intelsat/sat28'
p1373
sS'FLOCK 3P-46'
p1374
S'sat tle/cubesat/sat229'
p1375
sS'FLOCK 3P-47'
p1376
S'sat tle/cubesat/sat230'
p1377
sS'FLOCK 3P-44'
p1378
S'sat tle/cubesat/sat231'
p1379
sS'FLOCK 3P-45'
p1380
S'sat tle/cubesat/sat203'
p1381
sS'FLOCK 3P-42'
p1382
S'sat tle/cubesat/sat206'
p1383
sS'FLOCK 3P-43'
p1384
S'sat tle/cubesat/sat205'
p1385
sS'FLOCK 3P-40'
p1386
S'sat tle/cubesat/sat208'
p1387
sS'CUBESAT XI-IV (CO-57)'
p1388
S'sat tle/cubesat/sat2'
p1389
sS'COSMOS 2460 (732)'
p1390
S'sat tle/glo-ops/sat11'
p1391
sS'FLOCK 3P-48'
p1392
S'sat tle/cubesat/sat204'
p1393
sS'FLOCK 3P-49'
p1394
S'sat tle/cubesat/sat199'
p1395
sS'IRIDIUM 15 [+]'
p1396
S'sat tle/iridium/sat10'
p1397
sS'XM-5'
p1398
S'sat tle/intelsat/sat52'
p1399
sS'TIMED'
p1400
S'sat tle/science/sat13'
p1401
sS'PROGRESS-MS 06'
p1402
S'sat tle/stations/sat77'
p1403
sS'PROGRESS-MS 07'
p1404
S'sat tle/stations/sat81'
p1405
sS'OSCAR 24 [?]'
p1406
S'sat tle/nnss/sat9'
p1407
sS'GORIZONT 32 [-]'
p1408
S'sat tle/gorizont/sat31'
p1409
sS'CUSAT 2 & FALCON 9 R/B'
p1410
S'sat tle/visual/sat139'
p1411
sS'GLOBALSTAR M076 [+]'
p1412
S'sat tle/globalstar/sat62'
p1413
sS'SES-5 (EGNOS/PRN 136)'
p1414
S'sat tle/sbas/sat8'
p1415
sS'GENESIS 2'
p1416
S'sat tle/engineering/sat6'
p1417
sS'GENESIS 1'
p1418
S'sat tle/engineering/sat4'
p1419
sS'ORBCOMM FM41 [-]'
p1420
S'sat tle/orbcomm/sat37'
p1421
sS'ATHENOXAT 1'
p1422
S'sat tle/cubesat/sat79'
p1423
sS'KALPANA-1 (METSAT 1)'
p1424
S'sat tle/geo/sat86'
p1425
sS'NUSTAR'
p1426
S'sat tle/science/sat39'
p1427
sS'GLOBALSTAR M046 [-]'
p1428
S'sat tle/globalstar/sat14'
p1429
sS'COSMOS 2471 (701K)'
p1430
S'sat tle/glo-ops/sat13'
p1431
sS'THOR 5'
p1432
S'sat tle/geo/sat176'
p1433
sS'CUBESAT XI-V (CO-58)'
p1434
S'sat tle/amateur/sat14'
p1435
sS'THOR 6'
p1436
S'sat tle/geo/sat221'
p1437
sS'GPM-CORE'
p1438
S'sat tle/tdrss/sat24'
p1439
sS'EROS B'
p1440
S'sat tle/resource/sat15'
p1441
sS'INTELSAT 18 (IS-18)'
p1442
S'sat tle/intelsat/sat55'
p1443
sS'CXBN-2'
p1444
S'sat tle/cubesat/sat258'
p1445
sS'2017-077D'
p1446
S'sat tle/tle-new/sat28'
p1447
sS'2017-077E'
p1448
S'sat tle/tle-new/sat29'
p1449
sS'COSMOS 2454 [-]'
p1450
S'sat tle/musson/sat7'
p1451
sS'2017-077B'
p1452
S'sat tle/tle-new/sat26'
p1453
sS'2017-077C'
p1454
S'sat tle/tle-new/sat27'
p1455
sS'HOOPOE'
p1456
S'sat tle/cubesat/sat270'
p1457
sS'HST'
p1458
S'sat tle/science/sat1'
p1459
sS'COSMOS 2492 (754)'
p1460
S'sat tle/glo-ops/sat19'
p1461
sS'INTELSAT 26 (IS-26)'
p1462
S'sat tle/intelsat/sat1'
p1463
sS'OPTUS D2'
p1464
S'sat tle/geo/sat168'
p1465
sS'IRIDIUM 108 [+]'
p1466
S'sat tle/iridium-NEXT/sat7'
p1467
sS'IRIDIUM 33 [-]'
p1468
S'sat tle/iridium/sat24'
p1469
sS'AFRISTAR'
p1470
S'sat tle/intelsat/sat5'
p1471
sS'GSAT0204 (PRN E22)'
p1472
S'sat tle/galileo/sat7'
p1473
sS'COMS 1'
p1474
S'sat tle/geo/sat237'
p1475
sS'CFESAT'
p1476
S'sat tle/military/sat1'
p1477
sS'LINK'
p1478
S'sat tle/cubesat/sat266'
p1479
sS"FLOCK 2E'-20"
p1480
S'sat tle/cubesat/sat130'
p1481
sS'MMS 1'
p1482
S'sat tle/science/sat58'
p1483
sS'MMS 2'
p1484
S'sat tle/science/sat59'
p1485
sS'MMS 3'
p1486
S'sat tle/science/sat60'
p1487
sS'MMS 4'
p1488
S'sat tle/science/sat61'
p1489
sS'GOES 16'
p1490
S'sat tle/geo/sat418'
p1491
sS'GOES 14'
p1492
S'sat tle/geo/sat210'
p1493
sS'GOES 15'
p1494
S'sat tle/geo/sat230'
p1495
sS'GOES 13'
p1496
S'sat tle/geo/sat141'
p1497
sS'EUTELSAT 70B'
p1498
S'sat tle/geo/sat307'
p1499
sS'COSMOS 2251 DEB'
p1500
S'sat tle/cosmos-2251-debris/sat1035'
p1501
sS'INTELSAT 23 (IS-23)'
p1502
S'sat tle/intelsat/sat60'
p1503
sS'COSMOS 2389 [-]'
p1504
S'sat tle/musson/sat2'
p1505
sS'METOP-B'
p1506
S'sat tle/argos/sat4'
p1507
sS'METOP-A'
p1508
S'sat tle/argos/sat2'
p1509
sS'ITF-2'
p1510
S'sat tle/cubesat/sat145'
p1511
sS'JILIN-01-06'
p1512
S'sat tle/tle-new/sat15'
p1513
sS'JILIN-01-04'
p1514
S'sat tle/tle-new/sat13'
p1515
sS'JILIN-01-05'
p1516
S'sat tle/tle-new/sat14'
p1517
sS'GLOBALSTAR M022 [-]'
p1518
S'sat tle/globalstar/sat12'
p1519
sS'SMAP'
p1520
S'sat tle/resource/sat98'
p1521
sS'BEIDOU M6'
p1522
S'sat tle/beidou/sat11'
p1523
sS'PEASSS'
p1524
S'sat tle/cubesat/sat213'
p1525
sS'ORBCOMM FM40 [-]'
p1526
S'sat tle/orbcomm/sat41'
p1527
sS'BEIDOU M4'
p1528
S'sat tle/beidou/sat10'
p1529
sS'EUTELSAT 8 WEST B'
p1530
S'sat tle/geo/sat373'
p1531
sS'FUNCUBE-3 (EO-79)'
p1532
S'sat tle/amateur/sat46'
p1533
sS'ASIASAT 9'
p1534
S'sat tle/geo/sat447'
p1535
sS'ASIASAT 8'
p1536
S'sat tle/geo/sat346'
p1537
sS'ASIASAT 7'
p1538
S'sat tle/geo/sat276'
p1539
sS'TDRS 12'
p1540
S'sat tle/geo/sat334'
p1541
sS'TDRS 11'
p1542
S'sat tle/geo/sat311'
p1543
sS'TDRS 10'
p1544
S'sat tle/geo/sat88'
p1545
sS'ANIK F2'
p1546
S'sat tle/geo/sat112'
p1547
sS'ANIK F3'
p1548
S'sat tle/geo/sat160'
p1549
sS'ANIK F1'
p1550
S'sat tle/geo/sat59'
p1551
sS'QBEE50-LTU-OC'
p1552
S'sat tle/cubesat/sat262'
p1553
sS'MOLNIYA 1-87'
p1554
S'sat tle/molniya/sat34'
p1555
sS'NEE-01 PEGASUS'
p1556
S'sat tle/cubesat/sat23'
p1557
sS'IRIDIUM 64 [+]'
p1558
S'sat tle/iridium/sat57'
p1559
sS'GLOBALSTAR M059 [+]'
p1560
S'sat tle/globalstar/sat41'
p1561
sS'SENTINEL-3A'
p1562
S'sat tle/resource/sat109'
p1563
sS'ESTCUBE 1'
p1564
S'sat tle/cubesat/sat25'
p1565
sS'COSMOS 1536'
p1566
S'sat tle/visual/sat34'
p1567
sS'AGILE'
p1568
S'sat tle/science/sat32'
p1569
sS'JPSS-1'
p1570
S'sat tle/tdrss/sat29'
p1571
sS'RADUGA 29 [-]'
p1572
S'sat tle/raduga/sat30'
p1573
sS'METEOR 1-29'
p1574
S'sat tle/visual/sat19'
p1575
sS'COSMOS 2522 (752)'
p1576
S'sat tle/glo-ops/sat24'
p1577
sS'LEMUR-2-ANDIS'
p1578
S'sat tle/cubesat/sat322'
p1579
sS'TIANWANG 1A (TW-1A)'
p1580
S'sat tle/cubesat/sat73'
p1581
sS'TDRS 13'
p1582
S'sat tle/geo/sat444'
p1583
sS'HISPASAT 1E'
p1584
S'sat tle/geo/sat252'
p1585
sS'HISPASAT 1D'
p1586
S'sat tle/geo/sat87'
p1587
sS'ASIASAT 6'
p1588
S'sat tle/geo/sat347'
p1589
sS'ASIASAT 5'
p1590
S'sat tle/geo/sat213'
p1591
sS'COSMOS 1626'
p1592
S'sat tle/visual/sat39'
p1593
sS'EUTELSAT HOT BIRD 13B'
p1594
S'sat tle/geo/sat145'
p1595
sS'EUTELSAT HOT BIRD 13C'
p1596
S'sat tle/geo/sat200'
p1597
sS'ASIASAT 4'
p1598
S'sat tle/geo/sat93'
p1599
sS'EUTELSAT HOT BIRD 13E'
p1600
S'sat tle/geo/sat138'
p1601
sS'AIM'
p1602
S'sat tle/science/sat33'
p1603
sS'VELOX 2'
p1604
S'sat tle/cubesat/sat81'
p1605
sS'PCSAT (NO-44)'
p1606
S'sat tle/amateur/sat9'
p1607
sS'GORIZONT 5 [-]'
p1608
S'sat tle/gorizont/sat4'
p1609
sS'INTELSAT 20 (IS-20)'
p1610
S'sat tle/intelsat/sat58'
p1611
sS'OPS 5712 (P/L 153)'
p1612
S'sat tle/radar/sat6'
p1613
sS'EUTELSAT 115 WEST B'
p1614
S'sat tle/geo/sat363'
p1615
sS'NILESAT 102'
p1616
S'sat tle/geo/sat51'
p1617
sS'GLOBALSTAR M048 [-]'
p1618
S'sat tle/globalstar/sat28'
p1619
sS'RADUGA 23 [-]'
p1620
S'sat tle/raduga/sat22'
p1621
sS'IRIDIUM 43 [-]'
p1622
S'sat tle/iridium/sat32'
p1623
sS'CLUSTER II-FM5 (RUMBA)'
p1624
S'sat tle/science/sat10'
p1625
sS'GPS BIIF-10  (PRN 08)'
p1626
S'sat tle/gps-ops/sat28'
p1627
sS'LEMUR-2-KUNGFOO'
p1628
S'sat tle/cubesat/sat297'
p1629
sS'ECHOSTAR 7'
p1630
S'sat tle/geo/sat70'
p1631
sS'ECHOSTAR 6'
p1632
S'sat tle/geo/sat48'
p1633
sS'ECHOSTAR 1'
p1634
S'sat tle/geo/sat8'
p1635
sS'FLOCK 2K-18'
p1636
S'sat tle/cubesat/sat365'
p1637
sS'GPS BIIF-11  (PRN 10)'
p1638
S'sat tle/gps-ops/sat29'
p1639
sS'GLOBALSTAR M084 [+]'
p1640
S'sat tle/globalstar/sat72'
p1641
sS'FLOCK 2K-14'
p1642
S'sat tle/cubesat/sat370'
p1643
sS'FLOCK 2K-17'
p1644
S'sat tle/cubesat/sat366'
p1645
sS'FLOCK 2K-16'
p1646
S'sat tle/cubesat/sat367'
p1647
sS'AQUA'
p1648
S'sat tle/tdrss/sat11'
p1649
sS'FLOCK 2K-10'
p1650
S'sat tle/cubesat/sat373'
p1651
sS'FLOCK 2K-13'
p1652
S'sat tle/cubesat/sat369'
p1653
sS'FLOCK 2K-12'
p1654
S'sat tle/cubesat/sat371'
p1655
sS'COSMOS 1953'
p1656
S'sat tle/visual/sat61'
p1657
sS'SDO'
p1658
S'sat tle/science/sat36'
p1659
sS'IRIDIUM 50 [+]'
p1660
S'sat tle/iridium/sat46'
p1661
sS'EXPRESS-A4'
p1662
S'sat tle/geo/sat79'
p1663
sS'GLOBALSTAR M080 [+]'
p1664
S'sat tle/globalstar/sat73'
p1665
sS'E-ST@R-II'
p1666
S'sat tle/cubesat/sat85'
p1667
sS'AFRICASAT-2 (MEASAT-2)'
p1668
S'sat tle/geo/sat14'
p1669
sS'ORBCOMM FM33 [P]'
p1670
S'sat tle/orbcomm/sat32'
p1671
sS'INMARSAT 3-F1'
p1672
S'sat tle/geo/sat9'
p1673
sS'FENGYUN 1C'
p1674
S'sat tle/1999-025/sat0'
p1675
sS'INTELSAT 5 (IS-5)'
p1676
S'sat tle/intelsat/sat3'
p1677
sS'IRIDIUM 120 [+]'
p1678
S'sat tle/iridium-NEXT/sat12'
p1679
sS'SJ-6C'
p1680
S'sat tle/science/sat30'
p1681
sS'IRIDIUM 2 [-]'
p1682
S'sat tle/iridium/sat73'
p1683
sS'DIRECTV 8'
p1684
S'sat tle/intelsat/sat30'
p1685
sS'SJ-6D'
p1686
S'sat tle/science/sat31'
p1687
sS'IRIDIUM 38 [-]'
p1688
S'sat tle/iridium/sat36'
p1689
sS'RADUGA 13 [-]'
p1690
S'sat tle/raduga/sat12'
p1691
sS'CHINASAT 5A (ZX 5A)'
p1692
S'sat tle/geo/sat27'
p1693
sS'OSCAR 30 [?]'
p1694
S'sat tle/nnss/sat8'
p1695
sS'THAICOM 4'
p1696
S'sat tle/geo/sat124'
p1697
sS'THAICOM 5'
p1698
S'sat tle/geo/sat143'
p1699
sS'THAICOM 6'
p1700
S'sat tle/geo/sat333'
p1701
sS'THAICOM 8'
p1702
S'sat tle/geo/sat402'
p1703
sS'COSMOS 2458 (734)'
p1704
S'sat tle/glo-ops/sat8'
p1705
sS'NOAA 4 [-]'
p1706
S'sat tle/noaa/sat3'
p1707
sS'RADUGA 18 [-]'
p1708
S'sat tle/raduga/sat17'
p1709
sS'COSMOS 2426 (717)'
p1710
S'sat tle/glo-ops/sat1'
p1711
sS'COSMOS 2501 (702K)'
p1712
S'sat tle/glo-ops/sat21'
p1713
sS'ASTRA 3A'
p1714
S'sat tle/ses/sat18'
p1715
sS'ASTRA 3B'
p1716
S'sat tle/ses/sat38'
p1717
sS'XIWANG-1 (HOPE-1)'
p1718
S'sat tle/amateur/sat24'
p1719
sS'SUZAKU (ASTRO-EII)'
p1720
S'sat tle/visual/sat124'
p1721
sS'GPS BIIF-9  (PRN 26)'
p1722
S'sat tle/gps-ops/sat27'
p1723
sS'I-INSPIRE II'
p1724
S'sat tle/cubesat/sat281'
p1725
sS'MAZAALAI (NUMSAT-1)'
p1726
S'sat tle/cubesat/sat318'
p1727
sS'IRIDIUM 42 [-]'
p1728
S'sat tle/iridium/sat37'
p1729
sS'EUTELSAT 36 WEST A'
p1730
S'sat tle/geo/sat83'
p1731
sS'VINASAT-2'
p1732
S'sat tle/geo/sat286'
p1733
sS'ORBCOMM FM23 [+]'
p1734
S'sat tle/orbcomm/sat23'
p1735
sS'LEMUR-2-SPIRE-MINIONS'
p1736
S'sat tle/cubesat/sat192'
p1737
sS'GSAT0207 (GALILEO 15)'
p1738
S'sat tle/sarsat/sat51'
p1739
sS'GOES 11 [-]'
p1740
S'sat tle/goes/sat10'
p1741
sS'ASTERIA'
p1742
S'sat tle/cubesat/sat382'
p1743
sS'BRAC ONNESHA'
p1744
S'sat tle/cubesat/sat319'
p1745
sS'GLOBALSTAR M092 [+]'
p1746
S'sat tle/globalstar/sat75'
p1747
sS'RADUGA 31 [-]'
p1748
S'sat tle/raduga/sat33'
p1749
sS'LEMUR-2-GREENBERG'
p1750
S'sat tle/cubesat/sat321'
p1751
sS'LEMUR-2-PETERG'
p1752
S'sat tle/cubesat/sat325'
p1753
sS'EXPRESS-AM44'
p1754
S'sat tle/geo/sat203'
p1755
sS'EUTELSAT 3B'
p1756
S'sat tle/geo/sat345'
p1757
sS'HELLAS-SAT 2'
p1758
S'sat tle/geo/sat94'
p1759
sS'HELLAS-SAT 3'
p1760
S'sat tle/geo/sat440'
p1761
sS'GPS BIIR-5  (PRN 28)'
p1762
S'sat tle/gps-ops/sat3'
p1763
sS'GSAT0209 (PRN E09)'
p1764
S'sat tle/galileo/sat10'
p1765
sS'TJS-2'
p1766
S'sat tle/geo/sat423'
p1767
sS'TJS-1'
p1768
S'sat tle/geo/sat376'
p1769
sS'IRIDIUM 55 [+]'
p1770
S'sat tle/iridium/sat50'
p1771
sS'ITAMSAT (IO-26)'
p1772
S'sat tle/amateur/sat4'
p1773
sS'GLOBALSTAR M049 [-]'
p1774
S'sat tle/globalstar/sat21'
p1775
sS'DIRECTV 4S'
p1776
S'sat tle/intelsat/sat15'
p1777
sS'ZHONGXING-6B'
p1778
S'sat tle/geo/sat163'
p1779
sS'COSMO-SKYMED 1'
p1780
S'sat tle/resource/sat21'
p1781
sS'COSMO-SKYMED 4'
p1782
S'sat tle/resource/sat51'
p1783
sS'ORBCOMM FM119 [-]'
p1784
S'sat tle/orbcomm/sat49'
p1785
sS'INTELSAT 29E (IS-29E)'
p1786
S'sat tle/intelsat/sat64'
p1787
sS'IRIDIUM 121 [+]'
p1788
S'sat tle/iridium-NEXT/sat19'
p1789
sS'LEMUR-2-SOKOLSKY'
p1790
S'sat tle/cubesat/sat141'
p1791
sS'EAGLE 2'
p1792
S'sat tle/cubesat/sat35'
p1793
sS'GOES 6 [-]'
p1794
S'sat tle/goes/sat5'
p1795
sS'MOLNIYA 2-9'
p1796
S'sat tle/molniya/sat0'
p1797
sS'NUSAT 1 (LO-87)'
p1798
S'sat tle/amateur/sat70'
p1799
sS'RADUGA 2 [-]'
p1800
S'sat tle/raduga/sat1'
p1801
sS'IRIDIUM 26 [-]'
p1802
S'sat tle/iridium/sat15'
p1803
sS'SURCAL 150B'
p1804
S'sat tle/radar/sat7'
p1805
sS'IRIDIUM 23 [+]'
p1806
S'sat tle/iridium/sat18'
p1807
sS'DIAMOND RED'
p1808
S'sat tle/cubesat/sat305'
p1809
sS'QUIKSCAT'
p1810
S'sat tle/resource/sat5'
p1811
sS'BIRD 2'
p1812
S'sat tle/engineering/sat1'
p1813
sS'GLOBALSTAR M003 [-]'
p1814
S'sat tle/globalstar/sat3'
p1815
sS'GPS BIIR-12 (PRN 23)'
p1816
S'sat tle/gps-ops/sat10'
p1817
sS'ORBCOMM FM28 [-]'
p1818
S'sat tle/orbcomm/sat28'
p1819
sS'GOES 10 [-]'
p1820
S'sat tle/goes/sat9'
p1821
sS'AURA'
p1822
S'sat tle/tdrss/sat14'
p1823
sS'NOAA 7 [-]'
p1824
S'sat tle/noaa/sat7'
p1825
sS'DELLINGR (RBLE)'
p1826
S'sat tle/cubesat/sat383'
p1827
sS'GLOBALSTAR M015 [-]'
p1828
S'sat tle/globalstar/sat6'
p1829
sS'ZIYUAN 3-2 (ZY 3-2)'
p1830
S'sat tle/resource/sat111'
p1831
sS'MEASAT-3B'
p1832
S'sat tle/geo/sat349'
p1833
sS'SUCHAI'
p1834
S'sat tle/cubesat/sat310'
p1835
sS'MEASAT-3A'
p1836
S'sat tle/geo/sat209'
p1837
sS'TERRASAR-X'
p1838
S'sat tle/resource/sat22'
p1839
sS'QZS-1 (MICHIBIKI)'
p1840
S'sat tle/geo/sat243'
p1841
sS'GLOBALSTAR M061 [-]'
p1842
S'sat tle/globalstar/sat47'
p1843
sS'SENTINEL-2B'
p1844
S'sat tle/resource/sat129'
p1845
sS'FENGYUN 2E'
p1846
S'sat tle/geo/sat202'
p1847
sS'GLOBALSTAR M088 [+]'
p1848
S'sat tle/globalstar/sat67'
p1849
sS'EUTELSAT 5 WEST A'
p1850
S'sat tle/geo/sat81'
p1851
sS'STRAND-1'
p1852
S'sat tle/cubesat/sat16'
p1853
sS'CHINASAT 2A (ZX 2A)'
p1854
S'sat tle/geo/sat288'
p1855
sS'GLOBALSTAR M033 [-]'
p1856
S'sat tle/globalstar/sat38'
p1857
sS'GALAXY 14 (G-14)'
p1858
S'sat tle/intelsat/sat32'
p1859
sS'FLOCK 2K-02'
p1860
S'sat tle/cubesat/sat331'
p1861
sS'FLOCK 2K-03'
p1862
S'sat tle/cubesat/sat328'
p1863
sS'FLOCK 2K-01'
p1864
S'sat tle/cubesat/sat330'
p1865
sS'FLOCK 2K-06'
p1866
S'sat tle/cubesat/sat375'
p1867
sS'FLOCK 2K-07'
p1868
S'sat tle/cubesat/sat340'
p1869
sS'FLOCK 2K-04'
p1870
S'sat tle/cubesat/sat329'
p1871
sS'FLOCK 2K-05'
p1872
S'sat tle/cubesat/sat342'
p1873
sS'GLOBALSTAR M070 [+]'
p1874
S'sat tle/globalstar/sat57'
p1875
sS'IRIDIUM 106 [+]'
p1876
S'sat tle/iridium-NEXT/sat0'
p1877
sS'FLOCK 2K-09'
p1878
S'sat tle/cubesat/sat374'
p1879
sS'INTELSAT 33E (IS-33E)'
p1880
S'sat tle/intelsat/sat67'
p1881
sS'O3B PFM'
p1882
S'sat tle/other-comm/sat3'
p1883
sS'GLOBALSTAR M038 [-]'
p1884
S'sat tle/globalstar/sat11'
p1885
sS'ORBCOMM FM27 [+]'
p1886
S'sat tle/orbcomm/sat27'
p1887
sS'IDEFIX & ARIANE 42P R/B'
p1888
S'sat tle/visual/sat113'
p1889
sS'CHINASAT 2C (ZX 2C)'
p1890
S'sat tle/geo/sat383'
p1891
sS'GPS BIIF-1  (PRN 25)'
p1892
S'sat tle/gps-ops/sat19'
p1893
sS'BREEZE-M DEB'
p1894
S'sat tle/2012-044/sat12'
p1895
sS'OPTICUBE 04'
p1896
S'sat tle/cubesat/sat135'
p1897
sS'BUCCANEER RMM'
p1898
S'sat tle/tle-new/sat5'
p1899
sS'IRIDIUM 59 [+]'
p1900
S'sat tle/iridium/sat53'
p1901
sS'LEMUR-2-AUSTINTACIOUS'
p1902
S'sat tle/cubesat/sat252'
p1903
sS'BULGARIASAT-1'
p1904
S'sat tle/geo/sat439'
p1905
sS'CUBEBUG-1 (CAPITAN BETO)'
p1906
S'sat tle/cubesat/sat24'
p1907
sS'COSMOS 2463 [+]'
p1908
S'sat tle/musson/sat8'
p1909
sS'RADFXSAT (FOX-1B)'
p1910
S'sat tle/tle-new/sat8'
p1911
sS'DANDE'
p1912
S'sat tle/science/sat48'
p1913
sS'NSS-11 (AAP-1)'
p1914
S'sat tle/ses/sat13'
p1915
sS'RADUGA-1 6 [-]'
p1916
S'sat tle/raduga/sat37'
p1917
sS'IRIDIUM 60 [+]'
p1918
S'sat tle/iridium/sat54'
p1919
sS'GPS BIIR-4  (PRN 20)'
p1920
S'sat tle/gps-ops/sat2'
p1921
sS'GORIZONT 26 [-]'
p1922
S'sat tle/gorizont/sat25'
p1923
sS'CARTOSAT-2 (IRS-P7)'
p1924
S'sat tle/resource/sat19'
p1925
sS'BEIDOU-3 M1'
p1926
S'sat tle/beidou/sat20'
p1927
sS'BEIDOU-3 M2'
p1928
S'sat tle/beidou/sat21'
p1929
sS'EXPRESS-AM22 (SESAT 2)'
p1930
S'sat tle/geo/sat104'
p1931
sS'SKY MUSTER (NBN1A)'
p1932
S'sat tle/geo/sat378'
p1933
sS'SNUSAT-1B'
p1934
S'sat tle/cubesat/sat283'
p1935
sS'GPS BIIF-7  (PRN 09)'
p1936
S'sat tle/gps-ops/sat25'
p1937
sS'RADUGA 3 [-]'
p1938
S'sat tle/raduga/sat2'
p1939
sS'COSMOS 2398 [-]'
p1940
S'sat tle/musson/sat3'
p1941
sS'GORIZONT 15 [-]'
p1942
S'sat tle/gorizont/sat14'
p1943
sS'IRIDIUM 57 [-]'
p1944
S'sat tle/iridium/sat51'
p1945
sS'AEROCUBE 6A'
p1946
S'sat tle/cubesat/sat63'
p1947
sS'FLOCK 3P-83'
p1948
S'sat tle/cubesat/sat248'
p1949
sS'FLOCK 3P-80'
p1950
S'sat tle/cubesat/sat224'
p1951
sS'ORBCOMM FM39 [-]'
p1952
S'sat tle/orbcomm/sat39'
p1953
sS'FLOCK 3P-86'
p1954
S'sat tle/cubesat/sat183'
p1955
sS'FLOCK 3P-87'
p1956
S'sat tle/cubesat/sat242'
p1957
sS'FLOCK 3P-84'
p1958
S'sat tle/cubesat/sat219'
p1959
sS'FLOCK 3P-85'
p1960
S'sat tle/cubesat/sat181'
p1961
sS'AIST-2'
p1962
S'sat tle/cubesat/sat19'
p1963
sS'FLOCK 3P-88'
p1964
S'sat tle/cubesat/sat180'
p1965
sS'SCISAT 1'
p1966
S'sat tle/science/sat19'
p1967
sS'GLOBALSTAR M097 [+]'
p1968
S'sat tle/globalstar/sat78'
p1969
sS'ASIASTAR'
p1970
S'sat tle/geo/sat44'
p1971
sS'RADUGA 11 [-]'
p1972
S'sat tle/raduga/sat10'
p1973
sS'OUFTI-1'
p1974
S'sat tle/cubesat/sat84'
p1975
sS'YAMAL 300K'
p1976
S'sat tle/geo/sat302'
p1977
sS'BEIJING 1'
p1978
S'sat tle/dmc/sat0'
p1979
sS'BSAT-3A'
p1980
S'sat tle/geo/sat166'
p1981
sS'BSAT-3B'
p1982
S'sat tle/geo/sat245'
p1983
sS'KANOPUS-V 1'
p1984
S'sat tle/resource/sat62'
p1985
sS'GOES 4 [-]'
p1986
S'sat tle/goes/sat3'
p1987
sS'FLOCK 2K-19'
p1988
S'sat tle/cubesat/sat364'
p1989
sS'ALTAIR PATHFINDER'
p1990
S'sat tle/cubesat/sat263'
p1991
sS'LQSAT'
p1992
S'sat tle/amateur/sat64'
p1993
sS'ASTRA 2C'
p1994
S'sat tle/ses/sat17'
p1995
sS'ASTRA 2B'
p1996
S'sat tle/ses/sat11'
p1997
sS'ASTRA 2A'
p1998
S'sat tle/ses/sat8'
p1999
sS'ASTRA 2G'
p2000
S'sat tle/ses/sat62'
p2001
sS'ASTRA 2F'
p2002
S'sat tle/ses/sat45'
p2003
sS'ASTRA 2E'
p2004
S'sat tle/ses/sat51'
p2005
sS'ASTRA 2D'
p2006
S'sat tle/ses/sat15'
p2007
sS'GPS BIIRM-2 (PRN 31)'
p2008
S'sat tle/gps-ops/sat13'
p2009
sS'GLOBALSTAR M044 [-]'
p2010
S'sat tle/globalstar/sat18'
p2011
sS'NOAA 9 [P]'
p2012
S'sat tle/noaa/sat9'
p2013
sS'GSAT0210 (GALILEO 13)'
p2014
S'sat tle/sarsat/sat50'
p2015
sS'TANDEM-X'
p2016
S'sat tle/resource/sat48'
p2017
sS'NOAA 6 [P]'
p2018
S'sat tle/noaa/sat6'
p2019
sS'GLOBALSTAR M053 [-]'
p2020
S'sat tle/globalstar/sat35'
p2021
sS'GSAT0206 (GALILEO 10)'
p2022
S'sat tle/sarsat/sat44'
p2023
sS'SL-8 R/B'
p2024
S'sat tle/visual/sat107'
p2025
sS'FALCONSAT-3'
p2026
S'sat tle/engineering/sat5'
p2027
sS'GLOBALSTAR M077 [+]'
p2028
S'sat tle/globalstar/sat63'
p2029
sS'GLOBALSTAR M069 [+]'
p2030
S'sat tle/globalstar/sat53'
p2031
sS'ORBCOMM FM118 [+]'
p2032
S'sat tle/orbcomm/sat52'
p2033
sS'GSAT0102 (GALILEO-FM2)'
p2034
S'sat tle/sarsat/sat22'
p2035
sS'GORIZONT 14 [-]'
p2036
S'sat tle/gorizont/sat13'
p2037
sS'SENTINEL-1A'
p2038
S'sat tle/resource/sat76'
p2039
sS'SENTINEL-1B'
p2040
S'sat tle/resource/sat110'
p2041
sS'COSMOS 2464 (736)'
p2042
S'sat tle/glo-ops/sat12'
p2043
sS'CHUBUSAT-3'
p2044
S'sat tle/amateur/sat66'
p2045
sS'UNSW-ECO'
p2046
S'sat tle/cubesat/sat273'
p2047
sS'LKW-1'
p2048
S'sat tle/tle-new/sat25'
p2049
sS'ZIYUAN 1-02C (ZY 1-02C)'
p2050
S'sat tle/resource/sat58'
p2051
sS'GSAT0201 (GALILEO 5)'
p2052
S'sat tle/sarsat/sat35'
p2053
sS'AMC-21'
p2054
S'sat tle/ses/sat31'
p2055
sS'GSAT0203 (PRN E26)'
p2056
S'sat tle/galileo/sat6'
p2057
sS'SL-16 R/B'
p2058
S'sat tle/visual/sat135'
p2059
sS'LEMUR-2-JEROEN'
p2060
S'sat tle/cubesat/sat76'
p2061
sS'IRIDIUM 126 [+]'
p2062
S'sat tle/iridium-NEXT/sat16'
p2063
sS'MOLNIYA 1-71'
p2064
S'sat tle/molniya/sat26'
p2065
sS'MOLNIYA 1-75'
p2066
S'sat tle/molniya/sat27'
p2067
sS'EUTELSAT 80A'
p2068
S'sat tle/geo/sat46'
p2069
sS'OPTUS D1'
p2070
S'sat tle/geo/sat151'
p2071
sS'OPTUS D3'
p2072
S'sat tle/geo/sat215'
p2073
sS'COSMOS 2428'
p2074
S'sat tle/visual/sat134'
p2075
sS'GOES 8 [-]'
p2076
S'sat tle/goes/sat7'
p2077
sS'GORIZONT 11 [-]'
p2078
S'sat tle/gorizont/sat10'
p2079
sS'GORIZONT 22 [-]'
p2080
S'sat tle/gorizont/sat21'
p2081
sS'HORYU-IV'
p2082
S'sat tle/cubesat/sat83'
p2083
sS'TRANSAT [?]'
p2084
S'sat tle/nnss/sat5'
p2085
sS'INTELSAT 30 (IS-30)'
p2086
S'sat tle/intelsat/sat62'
p2087
sS'COSMOS 2513'
p2088
S'sat tle/geo/sat390'
p2089
sS'IOR-W (EGNOS/PRN 126)'
p2090
S'sat tle/sbas/sat3'
p2091
sS'BEIDOU I2-S'
p2092
S'sat tle/beidou/sat16'
p2093
sS'TIANGONG-2'
p2094
S'sat tle/visual/sat143'
p2095
sS'IRIDIUM 119 [+]'
p2096
S'sat tle/iridium-NEXT/sat24'
p2097
sS'INMARSAT 3-F5'
p2098
S'sat tle/geo/sat25'
p2099
sS'COSMOS 2228'
p2100
S'sat tle/visual/sat90'
p2101
sS'INMARSAT 3-F2'
p2102
S'sat tle/geo/sat12'
p2103
sS'INMARSAT 3-F3'
p2104
S'sat tle/geo/sat15'
p2105
sS'NOAA 10 [-]'
p2106
S'sat tle/noaa/sat10'
p2107
sS'GLOBALSTAR M001 [-]'
p2108
S'sat tle/globalstar/sat0'
p2109
sS'COSMOS 2378 [-]'
p2110
S'sat tle/musson/sat1'
p2111
sS'COLUMBIA'
p2112
S'sat tle/cubesat/sat256'
p2113
sS'CHINASAT 11 (ZX 11)'
p2114
S'sat tle/geo/sat316'
p2115
sS'IRIDIUM 41 [+]'
p2116
S'sat tle/iridium/sat33'
p2117
sS'DUMMY MASS 1 [-]'
p2118
S'sat tle/iridium/sat20'
p2119
sS'RADUGA 26 [-]'
p2120
S'sat tle/raduga/sat26'
p2121
sS'GPS BIIF-8  (PRN 03)'
p2122
S'sat tle/gps-ops/sat26'
p2123
sS'GLOBALSTAR M031 [-]'
p2124
S'sat tle/globalstar/sat43'
p2125
sS'INSAT-3DR'
p2126
S'sat tle/geo/sat413'
p2127
sS'OKEAN-O'
p2128
S'sat tle/visual/sat109'
p2129
sS'AMC-8 (GE-8)'
p2130
S'sat tle/ses/sat16'
p2131
sS'DAMPE'
p2132
S'sat tle/science/sat63'
p2133
sS'GLOBALSTAR M063 [+]'
p2134
S'sat tle/globalstar/sat48'
p2135
sS'NOAA 14 [-]'
p2136
S'sat tle/noaa/sat14'
p2137
sS'TURKSAT 3A'
p2138
S'sat tle/geo/sat188'
p2139
sS'BIROS'
p2140
S'sat tle/resource/sat117'
p2141
sS'GPS BIIR-6  (PRN 14)'
p2142
S'sat tle/gps-ops/sat4'
p2143
sS'LUSAT (LO-19)'
p2144
S'sat tle/amateur/sat2'
p2145
sS'CHINASAT 9 (ZX 9)'
p2146
S'sat tle/geo/sat186'
p2147
sS'SHIYAN 1 (SY-1)'
p2148
S'sat tle/resource/sat10'
p2149
sS'RADUGA 8 [-]'
p2150
S'sat tle/raduga/sat7'
p2151
sS'VIASAT-1'
p2152
S'sat tle/geo/sat275'
p2153
sS'OKEAN-3'
p2154
S'sat tle/visual/sat79'
p2155
sS'COSMOS 2485 (747)'
p2156
S'sat tle/glo-ops/sat18'
p2157
sS'DMC3-FM1'
p2158
S'sat tle/dmc/sat7'
p2159
sS'DMC3-FM3'
p2160
S'sat tle/dmc/sat9'
p2161
sS'DMC3-FM2'
p2162
S'sat tle/dmc/sat8'
p2163
sS'CALSPHERE 1'
p2164
S'sat tle/radar/sat0'
p2165
sS'CALSPHERE 2'
p2166
S'sat tle/radar/sat1'
p2167
sS'LEMUR-2-LYNSEY-SYMO'
p2168
S'sat tle/cubesat/sat301'
p2169
sS'CASSIOPE'
p2170
S'sat tle/science/sat47'
p2171
sS'ASTRA 1N'
p2172
S'sat tle/ses/sat40'
p2173
sS'GSAT-8'
p2174
S'sat tle/geo/sat257'
p2175
sS'ASTRA 1L'
p2176
S'sat tle/ses/sat29'
p2177
sS'ASTRA 1M'
p2178
S'sat tle/ses/sat32'
p2179
sS'ASTRA 1H'
p2180
S'sat tle/ses/sat9'
p2181
sS'ASTRA 1F'
p2182
S'sat tle/ses/sat1'
p2183
sS'ASTRA 1G'
p2184
S'sat tle/ses/sat6'
p2185
sS'ASTRA 1D'
p2186
S'sat tle/ses/sat0'
p2187
sS'OSCAR 27 [?]'
p2188
S'sat tle/nnss/sat11'
p2189
sS'MEXSAT 3'
p2190
S'sat tle/geo/sat310'
p2191
sS'EUTELSAT 48D'
p2192
S'sat tle/geo/sat201'
p2193
sS'INTELSAT 15 (IS-15)'
p2194
S'sat tle/intelsat/sat49'
p2195
sS'GORIZONT 13 [-]'
p2196
S'sat tle/gorizont/sat12'
p2197
sS'AZERSPACE 1'
p2198
S'sat tle/geo/sat313'
p2199
sS'GLOBALSTAR M078 [+]'
p2200
S'sat tle/globalstar/sat82'
p2201
sS"FLOCK 2E'-15"
p2202
S'sat tle/cubesat/sat126'
p2203
sS"FLOCK 2E'-14"
p2204
S'sat tle/cubesat/sat124'
p2205
sS"FLOCK 2E'-17"
p2206
S'sat tle/cubesat/sat128'
p2207
sS"FLOCK 2E'-16"
p2208
S'sat tle/cubesat/sat125'
p2209
sS"FLOCK 2E'-11"
p2210
S'sat tle/cubesat/sat107'
p2211
sS"FLOCK 2E'-10"
p2212
S'sat tle/cubesat/sat106'
p2213
sS'SAUDISAT 1C (SO-50)'
p2214
S'sat tle/amateur/sat10'
p2215
sS"FLOCK 2E'-12"
p2216
S'sat tle/cubesat/sat108'
p2217
sS"FLOCK 2E'-19"
p2218
S'sat tle/cubesat/sat129'
p2219
sS"FLOCK 2E'-18"
p2220
S'sat tle/cubesat/sat127'
p2221
sS'SAUDISAT 3'
p2222
S'sat tle/education/sat2'
p2223
sS"FLOCK 2E'-13"
p2224
S'sat tle/cubesat/sat123'
p2225
sS'RADUGA-1 4 [-]'
p2226
S'sat tle/raduga/sat35'
p2227
sS'ORBCOMM FM104 [-]'
p2228
S'sat tle/orbcomm/sat46'
p2229
sS'GORIZONT 3 [-]'
p2230
S'sat tle/gorizont/sat2'
p2231
sS'COSMOS 2461 (735)'
p2232
S'sat tle/glo-ops/sat10'
p2233
sS'IRIDIUM 3 [+]'
p2234
S'sat tle/iridium/sat68'
p2235
sS'MAKERSAT 0'
p2236
S'sat tle/tle-new/sat7'
p2237
sS'LEMUR-2-REDFERN-GOES'
p2238
S'sat tle/cubesat/sat250'
p2239
sS'MEASAT-3'
p2240
S'sat tle/geo/sat157'
p2241
sS'N-STAR C'
p2242
S'sat tle/geo/sat82'
p2243
sS'EUTELSAT KA-SAT 9A'
p2244
S'sat tle/geo/sat251'
p2245
sS'SHENZHOU-11 MODULE'
p2246
S'sat tle/visual/sat144'
p2247
sS'KOMPSAT-3A'
p2248
S'sat tle/resource/sat99'
p2249
sS'FLOCK 2K-15'
p2250
S'sat tle/cubesat/sat368'
p2251
sS'LITUANICASAT-2'
p2252
S'sat tle/cubesat/sat293'
p2253
sS'FLOCK 2K-11'
p2254
S'sat tle/cubesat/sat372'
p2255
sS'GPS BIIF-12'
p2256
S'sat tle/sarsat/sat48'
p2257
sS'GPS BIIF-11'
p2258
S'sat tle/sarsat/sat45'
p2259
sS'GPS BIIF-10'
p2260
S'sat tle/sarsat/sat42'
p2261
sS'ORBCOMM FM112 [+]'
p2262
S'sat tle/orbcomm/sat53'
p2263
sS'ORBCOMM FM117 [+]'
p2264
S'sat tle/orbcomm/sat57'
p2265
sS'COSMOS 1455'
p2266
S'sat tle/visual/sat31'
p2267
sS'BEIDOU G1'
p2268
S'sat tle/beidou/sat0'
p2269
sS'BEIDOU G3'
p2270
S'sat tle/beidou/sat1'
p2271
sS'BEIDOU G4'
p2272
S'sat tle/beidou/sat3'
p2273
sS'BEIDOU G5'
p2274
S'sat tle/beidou/sat8'
p2275
sS'ABS-4 (MOBISAT-1)'
p2276
S'sat tle/geo/sat106'
p2277
sS'BEIDOU G7'
p2278
S'sat tle/beidou/sat19'
p2279
sS'TIANTONG-1 1'
p2280
S'sat tle/geo/sat409'
p2281
sS'GLOBALSTAR M045 [-]'
p2282
S'sat tle/globalstar/sat16'
p2283
sS'ARIANE 40 R/B'
p2284
S'sat tle/visual/sat94'
p2285
sS'SRMSAT'
p2286
S'sat tle/amateur/sat27'
p2287
sS'WNISAT-1'
p2288
S'sat tle/cubesat/sat30'
p2289
sS'RADUGA-1M 2 [+]'
p2290
S'sat tle/raduga/sat41'
p2291
sS'M-CUBED & EXP-1 PRIME'
p2292
S'sat tle/cubesat/sat14'
p2293
sS'ORBCOMM FM107 [+]'
p2294
S'sat tle/orbcomm/sat43'
p2295
sS'IRNSS-1C'
p2296
S'sat tle/geo/sat352'
p2297
sS'IRNSS-1B'
p2298
S'sat tle/geo/sat342'
p2299
sS'IRNSS-1A'
p2300
S'sat tle/geo/sat319'
p2301
sS'QSAT-EOS'
p2302
S'sat tle/resource/sat91'
p2303
sS'MSAT M1'
p2304
S'sat tle/geo/sat11'
p2305
sS'IRNSS-1F'
p2306
S'sat tle/geo/sat399'
p2307
sS'IRNSS-1E'
p2308
S'sat tle/geo/sat394'
p2309
sS'GOES 12 [-]'
p2310
S'sat tle/goes/sat11'
p2311
sS'HODOYOSHI-3'
p2312
S'sat tle/resource/sat82'
p2313
sS'HODOYOSHI-1'
p2314
S'sat tle/resource/sat89'
p2315
sS'HODOYOSHI-4'
p2316
S'sat tle/resource/sat80'
p2317
sS'POLAR'
p2318
S'sat tle/science/sat2'
p2319
sS'GSAT0101 (PRN E11)'
p2320
S'sat tle/galileo/sat0'
p2321
sS'COSMOS 1812'
p2322
S'sat tle/visual/sat49'
p2323
sS'NOVA 3 [?]'
p2324
S'sat tle/nnss/sat7'
p2325
sS'SKCUBE'
p2326
S'sat tle/cubesat/sat311'
p2327
sS'CZ-3B R/B'
p2328
S'sat tle/tle-new/sat31'
p2329
sS'IRIDIUM 31 [+]'
p2330
S'sat tle/iridium/sat26'
p2331
sS'IRIDIUM 129 [+]'
p2332
S'sat tle/iridium-NEXT/sat23'
p2333
sS'RADUGA 10 [-]'
p2334
S'sat tle/raduga/sat9'
p2335
sS'OSCAR 31 [?]'
p2336
S'sat tle/nnss/sat17'
p2337
sS'FLOCK 3P-81'
p2338
S'sat tle/cubesat/sat241'
p2339
sS'IRIDIUM 34 [+]'
p2340
S'sat tle/iridium/sat31'
p2341
sS'EUTELSAT 172B'
p2342
S'sat tle/geo/sat435'
p2343
sS'MOLNIYA 1-63'
p2344
S'sat tle/molniya/sat21'
p2345
sS'LUCH 5A'
p2346
S'sat tle/geo/sat277'
p2347
sS'GOKTURK 2'
p2348
S'sat tle/resource/sat66'
p2349
sS'MOLNIYA 1-69'
p2350
S'sat tle/molniya/sat24'
p2351
sS'OPTUS C1'
p2352
S'sat tle/geo/sat97'
p2353
sS'CZ-4C R/B'
p2354
S'sat tle/tle-new/sat3'
p2355
sS'LEMUR-2-LISASAURUS'
p2356
S'sat tle/cubesat/sat302'
p2357
sS'LUCH 5V'
p2358
S'sat tle/geo/sat343'
p2359
sS'ZIYUAN 3 (ZY 3)'
p2360
S'sat tle/resource/sat59'
p2361
sS'IRIDIUM 51 [-]'
p2362
S'sat tle/iridium/sat48'
p2363
sS'SIRIUS FM-6'
p2364
S'sat tle/intelsat/sat61'
p2365
sS'GPS BIIR-14M'
p2366
S'sat tle/sarsat/sat8'
p2367
sS'SIRIUS FM-5'
p2368
S'sat tle/intelsat/sat47'
p2369
sS'OSIRIS-3U'
p2370
S'sat tle/cubesat/sat385'
p2371
sS'GORIZONT 4 [-]'
p2372
S'sat tle/gorizont/sat3'
p2373
sS'NUDT-PHONESAT'
p2374
S'sat tle/amateur/sat48'
p2375
sS'EXACTVIEW-1 (ADS-1B)'
p2376
S'sat tle/resource/sat63'
p2377
sS'JAS-2 (FO-29)'
p2378
S'sat tle/amateur/sat6'
p2379
sS'THURAYA-3'
p2380
S'sat tle/geo/sat174'
p2381
sS'SUSAT'
p2382
S'sat tle/cubesat/sat280'
p2383
sS'COSMOS 2514 (751)'
p2384
S'sat tle/glo-ops/sat22'
p2385
sS'NOAA 8 [-]'
p2386
S'sat tle/noaa/sat8'
p2387
sS'PRISM (HITOMI)'
p2388
S'sat tle/amateur/sat19'
p2389
sS'GLOBALSTAR M068 [-]'
p2390
S'sat tle/globalstar/sat59'
p2391
sS'FLOCK 3P-3'
p2392
S'sat tle/cubesat/sat166'
p2393
sS'TURKMENALEM52E/MONACOSAT'
p2394
S'sat tle/geo/sat367'
p2395
sS'FLOCK 3P-5'
p2396
S'sat tle/cubesat/sat169'
p2397
sS'FLOCK 3P-4'
p2398
S'sat tle/cubesat/sat163'
p2399
sS'FLOCK 3P-7'
p2400
S'sat tle/cubesat/sat168'
p2401
sS'FLOCK 3P-6'
p2402
S'sat tle/cubesat/sat167'
p2403
sS'FLOCK 3P-9'
p2404
S'sat tle/cubesat/sat171'
p2405
sS'JCSAT-16'
p2406
S'sat tle/geo/sat410'
p2407
sS'JCSAT-13'
p2408
S'sat tle/geo/sat285'
p2409
sS'SGSAT'
p2410
S'sat tle/cubesat/sat257'
p2411
sS'BGUSAT'
p2412
S'sat tle/cubesat/sat197'
p2413
sS'RESOURCESAT-2A'
p2414
S'sat tle/resource/sat127'
p2415
sS'GSAT0213 (GALILEO 17)'
p2416
S'sat tle/sarsat/sat53'
p2417
sS'COSMOS 2456 (730)'
p2418
S'sat tle/glo-ops/sat6'
p2419
sS'GLOBALSTAR M008 [-]'
p2420
S'sat tle/globalstar/sat7'
p2421
sS'LEMUR-2-DEMBITZ'
p2422
S'sat tle/cubesat/sat326'
p2423
sS'NIMIQ 1'
p2424
S'sat tle/geo/sat35'
p2425
sS'NIMIQ 2'
p2426
S'sat tle/geo/sat90'
p2427
sS'NIMIQ 5'
p2428
S'sat tle/geo/sat217'
p2429
sS'NIMIQ 4'
p2430
S'sat tle/geo/sat195'
p2431
sS'GORIZONT 29 [-]'
p2432
S'sat tle/gorizont/sat28'
p2433
sS'SILU-1 (SILKROAD 1)'
p2434
S'sat tle/cubesat/sat376'
p2435
sS'BUGSAT-1 (TITA)'
p2436
S'sat tle/engineering/sat19'
p2437
sS'TERRESTAR-1'
p2438
S'sat tle/geo/sat212'
p2439
sS'FENGYUN 4A'
p2440
S'sat tle/geo/sat420'
p2441
sS'IRIDIUM 84 [+]'
p2442
S'sat tle/iridium/sat75'
p2443
sS'KENT RIDGE 1'
p2444
S'sat tle/resource/sat106'
p2445
sS'IRIDIUM 81 [+]'
p2446
S'sat tle/iridium/sat71'
p2447
sS'GSAT0103 (PRN E19)'
p2448
S'sat tle/galileo/sat2'
p2449
sS'IRIDIUM 6 [+]'
p2450
S'sat tle/iridium/sat1'
p2451
sS'AAUSAT-II'
p2452
S'sat tle/cubesat/sat6'
p2453
sS'ORBCOMM FM108 [+]'
p2454
S'sat tle/orbcomm/sat56'
p2455
sS'AAUSAT 4'
p2456
S'sat tle/cubesat/sat86'
p2457
sS'ICECUBE'
p2458
S'sat tle/cubesat/sat259'
p2459
sS'CUTE-1 (CO-55)'
p2460
S'sat tle/cubesat/sat1'
p2461
sS'FLOCK 2E-3'
p2462
S'sat tle/cubesat/sat93'
p2463
sS'FLOCK 2E-2'
p2464
S'sat tle/cubesat/sat92'
p2465
sS'FLOCK 2E-1'
p2466
S'sat tle/cubesat/sat91'
p2467
sS'FLOCK 2E-7'
p2468
S'sat tle/cubesat/sat97'
p2469
sS'FLOCK 2E-6'
p2470
S'sat tle/cubesat/sat95'
p2471
sS'FLOCK 2E-5'
p2472
S'sat tle/cubesat/sat96'
p2473
sS'FLOCK 2E-4'
p2474
S'sat tle/cubesat/sat94'
p2475
sS'FLOCK 2E-9'
p2476
S'sat tle/cubesat/sat101'
p2477
sS'CZ-6 R/B'
p2478
S'sat tle/tle-new/sat16'
p2479
sS'TDS 1'
p2480
S'sat tle/engineering/sat27'
p2481
sS'GOES 13 [+]'
p2482
S'sat tle/goes/sat12'
p2483
sS'FLOCK 3P-8'
p2484
S'sat tle/cubesat/sat149'
p2485
sS'SIMPL'
p2486
S'sat tle/stations/sat82'
p2487
sS'ABS-2'
p2488
S'sat tle/geo/sat335'
p2489
sS'ABS-3'
p2490
S'sat tle/geo/sat19'
p2491
sS'SES-11 (ECHOSTAR 105)'
p2492
S'sat tle/geo/sat450'
p2493
sS'ABS-6'
p2494
S'sat tle/geo/sat39'
p2495
sS'IRIDIUM 39 [B]'
p2496
S'sat tle/iridium/sat35'
p2497
sS'COSMOS 2433 (720)'
p2498
S'sat tle/glo-ops/sat2'
p2499
sS'ANTELSAT'
p2500
S'sat tle/cubesat/sat52'
p2501
sS'FLOCK 3P-50'
p2502
S'sat tle/cubesat/sat227'
p2503
sS'CARBONITE 1 (CBNT-1)'
p2504
S'sat tle/resource/sat101'
p2505
sS'TOKI'
p2506
S'sat tle/cubesat/sat316'
p2507
sS'UPSAT'
p2508
S'sat tle/cubesat/sat268'
p2509
sS'MORELOS 3'
p2510
S'sat tle/geo/sat380'
p2511
sS'ATLAS CENTAUR 2'
p2512
S'sat tle/visual/sat0'
p2513
sS'FLOCK 3P-53'
p2514
S'sat tle/cubesat/sat211'
p2515
sS'STAR ONE C4'
p2516
S'sat tle/geo/sat371'
p2517
sS'STAR ONE C2'
p2518
S'sat tle/geo/sat182'
p2519
sS'STAR ONE C3'
p2520
S'sat tle/geo/sat303'
p2521
sS'STAR ONE C1'
p2522
S'sat tle/geo/sat170'
p2523
sS'BADR-4'
p2524
S'sat tle/geo/sat153'
p2525
sS'BADR-5'
p2526
S'sat tle/geo/sat236'
p2527
sS'BADR-6'
p2528
S'sat tle/geo/sat190'
p2529
sS'INTELSAT 34 (IS-34)'
p2530
S'sat tle/intelsat/sat63'
p2531
sS'IRIDIUM 111 [+]'
p2532
S'sat tle/iridium-NEXT/sat9'
p2533
sS'STSAT-2C'
p2534
S'sat tle/engineering/sat13'
p2535
sS'GLOBALSTAR M073 [+]'
p2536
S'sat tle/globalstar/sat65'
p2537
sS'DELTA 2 R/B(1)'
p2538
S'sat tle/visual/sat69'
p2539
sS'IRIDIUM 132 [+]'
p2540
S'sat tle/iridium-NEXT/sat26'
p2541
sS'GALAXY 18 (G-18)'
p2542
S'sat tle/intelsat/sat44'
p2543
sS'TRITON-1'
p2544
S'sat tle/cubesat/sat31'
p2545
sS'ORBCOMM FM111 [-]'
p2546
S'sat tle/orbcomm/sat45'
p2547
sS'INSAT-4CR'
p2548
S'sat tle/geo/sat167'
p2549
sS'AOXIANG-1'
p2550
S'sat tle/cubesat/sat285'
p2551
sS'GPS BIIRM-1 (PRN 17)'
p2552
S'sat tle/gps-ops/sat12'
p2553
sS'IRIDIUM 72 [+]'
p2554
S'sat tle/iridium/sat65'
p2555
sS'HORYU 2'
p2556
S'sat tle/cubesat/sat15'
p2557
sS'IRIDIUM 25 [+]'
p2558
S'sat tle/iridium/sat16'
p2559
sS'INTELSAT 8 (IS-8)'
p2560
S'sat tle/intelsat/sat6'
p2561
sS'RADUGA 5 [-]'
p2562
S'sat tle/raduga/sat4'
p2563
sS'TELSTAR 14R'
p2564
S'sat tle/geo/sat256'
p2565
sS'DIRECTV 10'
p2566
S'sat tle/intelsat/sat39'
p2567
sS'DIRECTV 11'
p2568
S'sat tle/intelsat/sat43'
p2569
sS'DIRECTV 12'
p2570
S'sat tle/intelsat/sat50'
p2571
sS'ZHUHAI-1 01 (CAS 4A)'
p2572
S'sat tle/resource/sat132'
p2573
sS'DIRECTV 14'
p2574
S'sat tle/geo/sat357'
p2575
sS'DIRECTV 15'
p2576
S'sat tle/geo/sat368'
p2577
sS'DIDO-2'
p2578
S'sat tle/cubesat/sat198'
p2579
sS'IRIDIUM 21 [+]'
p2580
S'sat tle/iridium/sat80'
p2581
sS'FLOCK 3P-27'
p2582
S'sat tle/cubesat/sat161'
p2583
sS'GSAT0208 (PRN E08)'
p2584
S'sat tle/galileo/sat11'
p2585
sS'CORIOLIS'
p2586
S'sat tle/science/sat16'
p2587
sS'RADUGA-1 5 [-]'
p2588
S'sat tle/raduga/sat36'
p2589
sS'BEIDOU G6'
p2590
S'sat tle/beidou/sat12'
p2591
sS'IRIDIUM 86 [+]'
p2592
S'sat tle/iridium/sat74'
p2593
sS'LEMUR-2-SATCHMO'
p2594
S'sat tle/cubesat/sat189'
p2595
sS'SL-6 R/B(2)'
p2596
S'sat tle/visual/sat76'
p2597
sS'RADUGA 12 [-]'
p2598
S'sat tle/raduga/sat11'
p2599
sS'SIRIUS-1'
p2600
S'sat tle/intelsat/sat8'
p2601
sS'GLOBALSTAR M074 [+]'
p2602
S'sat tle/globalstar/sat61'
p2603
sS'GLOBALSTAR M040 [-]'
p2604
S'sat tle/globalstar/sat9'
p2605
sS'COSMOS 2516 (753)'
p2606
S'sat tle/glo-ops/sat23'
p2607
sS'THEMIS A'
p2608
S'sat tle/tdrss/sat16'
p2609
sS'ASTRA 1KR'
p2610
S'sat tle/ses/sat27'
p2611
sS'GPS BIIR-3  (PRN 11)'
p2612
S'sat tle/gps-ops/sat1'
p2613
sS'THEMIS D'
p2614
S'sat tle/tdrss/sat17'
p2615
sS'THEMIS E'
p2616
S'sat tle/tdrss/sat18'
p2617
sS'FLOCK 1C-1'
p2618
S'sat tle/cubesat/sat46'
p2619
sS'PAKSAT-1R'
p2620
S'sat tle/geo/sat266'
p2621
sS'FLOCK 1C-3'
p2622
S'sat tle/cubesat/sat59'
p2623
sS'SARAL'
p2624
S'sat tle/argos/sat5'
p2625
sS'FLOCK 1C-5'
p2626
S'sat tle/cubesat/sat56'
p2627
sS'FLOCK 1C-6'
p2628
S'sat tle/cubesat/sat54'
p2629
sS'CHINASAT 6A (ZX 6A)'
p2630
S'sat tle/geo/sat242'
p2631
sS'FLOCK 1C-8'
p2632
S'sat tle/cubesat/sat58'
p2633
sS'FLOCK 1C-9'
p2634
S'sat tle/cubesat/sat53'
p2635
sS'NSS-806'
p2636
S'sat tle/ses/sat7'
p2637
sS'GALASSIA'
p2638
S'sat tle/cubesat/sat80'
p2639
sS'GPS BIIF-4  (PRN 27)'
p2640
S'sat tle/gps-ops/sat22'
p2641
sS'KAZEOSAT 1'
p2642
S'sat tle/resource/sat77'
p2643
sS'KAZEOSAT 2'
p2644
S'sat tle/resource/sat79'
p2645
sS'GLOBALSTAR M023 [-]'
p2646
S'sat tle/globalstar/sat8'
p2647
sS'MOLNIYA 2-17'
p2648
S'sat tle/molniya/sat8'
p2649
sS'BRASILSAT B4'
p2650
S'sat tle/geo/sat50'
p2651
sS'MOLNIYA 2-14'
p2652
S'sat tle/molniya/sat5'
p2653
sS'MOLNIYA 2-13'
p2654
S'sat tle/molniya/sat4'
p2655
sS'BRASILSAT B3'
p2656
S'sat tle/geo/sat24'
p2657
sS'BRASILSAT B2'
p2658
S'sat tle/geo/sat5'
p2659
sS'THURAYA-2'
p2660
S'sat tle/geo/sat96'
p2661
sS'FLOCK 2K-48'
p2662
S'sat tle/cubesat/sat333'
p2663
sS'METEOSAT-9 (MSG-2)'
p2664
S'sat tle/geo/sat133'
p2665
sS'COMSATBW-1'
p2666
S'sat tle/geo/sat219'
p2667
sS'FLOCK 2K-44'
p2668
S'sat tle/cubesat/sat351'
p2669
sS'COMSATBW-2'
p2670
S'sat tle/geo/sat234'
p2671
sS'IRIDIUM 117 [+]'
p2672
S'sat tle/iridium-NEXT/sat15'
p2673
sS'COSMOS 2434 (721)'
p2674
S'sat tle/glo-ops/sat4'
p2675
sS'POPACS 1'
p2676
S'sat tle/cubesat/sat26'
p2677
sS'POPACS 2'
p2678
S'sat tle/cubesat/sat27'
p2679
sS'GSAT0210 (PRN E01)'
p2680
S'sat tle/galileo/sat13'
p2681
sS'COSMOS 1844'
p2682
S'sat tle/visual/sat54'
p2683
sS'INTELSAT 37E (IS-37E)'
p2684
S'sat tle/intelsat/sat70'
p2685
sS'TELKOM 3S'
p2686
S'sat tle/geo/sat425'
p2687
sS'GLOBALSTAR M030 [-]'
p2688
S'sat tle/globalstar/sat27'
p2689
sS'COSMOS 2242'
p2690
S'sat tle/visual/sat92'
p2691
sS'COMPASS-1'
p2692
S'sat tle/cubesat/sat5'
p2693
sS'COSMOS 2084'
p2694
S'sat tle/visual/sat75'
p2695
sS'GLOBALSTAR M072 [+]'
p2696
S'sat tle/globalstar/sat54'
p2697
sS'HISPASAT 36W-1'
p2698
S'sat tle/geo/sat424'
p2699
sS'LEMUR-2-JOEL'
p2700
S'sat tle/cubesat/sat74'
p2701
sS'MOLNIYA 1-56'
p2702
S'sat tle/molniya/sat19'
p2703
sS'IRNSS-1G'
p2704
S'sat tle/geo/sat400'
p2705
sS'MOLNIYA 1-52'
p2706
S'sat tle/molniya/sat16'
p2707
sS'MOLNIYA 1-53'
p2708
S'sat tle/molniya/sat17'
p2709
sS'GSAT0212 (PRN E03)'
p2710
S'sat tle/galileo/sat15'
p2711
sS'DIWATA-1'
p2712
S'sat tle/cubesat/sat87'
p2713
sS'GLOBALSTAR M064 [-]'
p2714
S'sat tle/globalstar/sat51'
p2715
sS'IRNSS-1D'
p2716
S'sat tle/geo/sat365'
p2717
sS'NNSS O-20 [?]'
p2718
S'sat tle/nnss/sat4'
p2719
sS'MAX VALIER SAT'
p2720
S'sat tle/amateur/sat76'
p2721
sS'ALOS-2'
p2722
S'sat tle/resource/sat78'
p2723
sS'AMC-10 (GE-10)'
p2724
S'sat tle/ses/sat22'
p2725
sS'FORMOSAT-3 FM1'
p2726
S'sat tle/science/sat22'
p2727
sS'FORMOSAT-3 FM2'
p2728
S'sat tle/science/sat26'
p2729
sS'FORMOSAT-3 FM3'
p2730
S'sat tle/science/sat24'
p2731
sS'FORMOSAT-3 FM4'
p2732
S'sat tle/science/sat25'
p2733
sS'FORMOSAT-3 FM5'
p2734
S'sat tle/science/sat23'
p2735
sS'FORMOSAT-3 FM6'
p2736
S'sat tle/science/sat21'
p2737
sS'GORIZONT 6 [-]'
p2738
S'sat tle/gorizont/sat5'
p2739
sS'LUCH (OLYMP)'
p2740
S'sat tle/geo/sat350'
p2741
sS'IRIDIUM 920 [-]'
p2742
S'sat tle/iridium/sat12'
p2743
sS'LEMUR-2-JOBANPUTRA'
p2744
S'sat tle/cubesat/sat195'
p2745
sS'GORIZONT 20 [-]'
p2746
S'sat tle/gorizont/sat19'
p2747
sS'RADUGA 16 [-]'
p2748
S'sat tle/raduga/sat15'
p2749
sS'SOMP 2'
p2750
S'sat tle/cubesat/sat255'
p2751
sS'IRIDIUM 82 [-]'
p2752
S'sat tle/iridium/sat70'
p2753
sS'IRIDIUM 36 [-]'
p2754
S'sat tle/iridium/sat29'
p2755
sS'KOREASAT 6'
p2756
S'sat tle/geo/sat253'
p2757
sS'KOREASAT 7'
p2758
S'sat tle/geo/sat430'
p2759
sS'HUMSAT-D'
p2760
S'sat tle/cubesat/sat34'
p2761
sS'SARSAT 7 (NOAA 15)'
p2762
S'sat tle/sarsat/sat0'
p2763
sS'MOLNIYA 1-S'
p2764
S'sat tle/molniya/sat2'
p2765
sS'AKEBONO (EXOS-D)'
p2766
S'sat tle/science/sat0'
p2767
sS'GLOBALSTAR M027 [+]'
p2768
S'sat tle/globalstar/sat33'
p2769
sS'GOES 5 [-]'
p2770
S'sat tle/goes/sat4'
p2771
sS'EUTELSAT 7B'
p2772
S'sat tle/geo/sat317'
p2773
sS'EUTELSAT 7A'
p2774
S'sat tle/geo/sat107'
p2775
sS'IRIDIUM 13 [+]'
p2776
S'sat tle/iridium/sat7'
p2777
sS'COSMOS 2436 (723)'
p2778
S'sat tle/glo-ops/sat5'
p2779
sS'GPS BIIR-8  (PRN 16)'
p2780
S'sat tle/gps-ops/sat6'
p2781
sS'COSMOS 2475 (743)'
p2782
S'sat tle/glo-ops/sat17'
p2783
sS'UNISAT-6'
p2784
S'sat tle/amateur/sat44'
p2785
sS'RASAT'
p2786
S'sat tle/resource/sat53'
p2787
sS'GLOBALSTAR M043 [-]'
p2788
S'sat tle/globalstar/sat30'
p2789
sS'IRIDIUM 91 [+]'
p2790
S'sat tle/iridium/sat81'
p2791
sS'NOAA 16 [-]'
p2792
S'sat tle/noaa/sat16'
p2793
sS'TDRS 3'
p2794
S'sat tle/geo/sat0'
p2795
sS'TDRS 7'
p2796
S'sat tle/geo/sat7'
p2797
sS'TDRS 6'
p2798
S'sat tle/geo/sat3'
p2799
sS'TDRS 5'
p2800
S'sat tle/geo/sat2'
p2801
sS'TDRS 9'
p2802
S'sat tle/geo/sat72'
p2803
sS'TDRS 8'
p2804
S'sat tle/geo/sat47'
p2805
sS'PISAT'
p2806
S'sat tle/education/sat3'
p2807
sS'SKY MEXICO-1'
p2808
S'sat tle/geo/sat369'
p2809
sS'GSAT0201 (PRN E18)'
p2810
S'sat tle/galileo/sat4'
p2811
sS'ORBCOMM FM12 [+]'
p2812
S'sat tle/orbcomm/sat6'
p2813
sS'NSS-10 (AMC-12)'
p2814
S'sat tle/ses/sat26'
p2815
sS'INTELSAT 21 (IS-21)'
p2816
S'sat tle/intelsat/sat59'
p2817
sS'NOAA 13 [-]'
p2818
S'sat tle/noaa/sat13'
p2819
sS'COSMOS 2500 (755)'
p2820
S'sat tle/glo-ops/sat20'
p2821
sS'INTELSAT 31 (IS-31)'
p2822
S'sat tle/intelsat/sat65'
p2823
sS'GSAT0214 (GALILEO 18)'
p2824
S'sat tle/sarsat/sat54'
p2825
sS'IRIDIUM 18 [+]'
p2826
S'sat tle/iridium/sat13'
p2827
sS'IRIDIUM 52 [+]'
p2828
S'sat tle/iridium/sat43'
p2829
sS'CHUBUSAT-2'
p2830
S'sat tle/amateur/sat65'
p2831
sS'JASON-2 (OSTM)'
p2832
S'sat tle/resource/sat28'
p2833
sS'SL-27 R/B'
p2834
S'sat tle/visual/sat141'
p2835
sS'ARIANE 40+ R/B'
p2836
S'sat tle/visual/sat100'
p2837
sS'SPOT 6'
p2838
S'sat tle/resource/sat64'
p2839
sS'SPOT 7'
p2840
S'sat tle/resource/sat83'
p2841
sS'BANXING-2'
p2842
S'sat tle/stations/sat33'
p2843
sS'DUTHSAT'
p2844
S'sat tle/cubesat/sat274'
p2845
sS'ORBCOMM FM30 [+]'
p2846
S'sat tle/orbcomm/sat29'
p2847
sS'MTSAT-2 (MSAS/PRN 137)'
p2848
S'sat tle/sbas/sat4'
p2849
sS'DUMMY MASS 2 [-]'
p2850
S'sat tle/iridium/sat21'
p2851
sS'NUDTSAT'
p2852
S'sat tle/cubesat/sat309'
p2853
sS'FLOCK 2K-32'
p2854
S'sat tle/cubesat/sat348'
p2855
sS'GPS BIIR-10 (PRN 22)'
p2856
S'sat tle/gps-ops/sat8'
p2857
sS'GLOBALSTAR M060 [-]'
p2858
S'sat tle/globalstar/sat50'
p2859
sS'EUTELSAT 21B'
p2860
S'sat tle/geo/sat304'
p2861
sS'GALAXY 25 (G-25)'
p2862
S'sat tle/intelsat/sat2'
p2863
sS'COSMOS 2425 (716)'
p2864
S'sat tle/glo-ops/sat0'
p2865
sS'MOLNIYA 3-47'
p2866
S'sat tle/molniya/sat36'
p2867
sS'AMC-18'
p2868
S'sat tle/ses/sat28'
p2869
sS'AMC-16'
p2870
S'sat tle/ses/sat25'
p2871
sS'AMC-15'
p2872
S'sat tle/ses/sat24'
p2873
sS'AMC-14'
p2874
S'sat tle/geo/sat178'
p2875
sS'AALTO-1'
p2876
S'sat tle/cubesat/sat298'
p2877
sS'AALTO-2'
p2878
S'sat tle/cubesat/sat279'
p2879
sS'GLOBALSTAR M091 [+]'
p2880
S'sat tle/globalstar/sat68'
p2881
sS'GOES 14 [S]'
p2882
S'sat tle/goes/sat13'
p2883
sS'AGGIESAT 4'
p2884
S'sat tle/cubesat/sat82'
p2885
sS'RBSP B'
p2886
S'sat tle/science/sat41'
p2887
sS'RBSP A'
p2888
S'sat tle/science/sat40'
p2889
sS'COSMOS 1975'
p2890
S'sat tle/visual/sat63'
p2891
sS'GLOBALSTAR M083 [+]'
p2892
S'sat tle/globalstar/sat66'
p2893
sS'EUTELSAT 10A'
p2894
S'sat tle/geo/sat207'
p2895
sS'COSMOS 2524'
p2896
S'sat tle/tle-new/sat23'
p2897
sS'GPS BIIR-16M'
p2898
S'sat tle/sarsat/sat12'
p2899
sS'GLOBALSTAR M032 [-]'
p2900
S'sat tle/globalstar/sat25'
p2901
sS'COSMOS 2520'
p2902
S'sat tle/geo/sat443'
p2903
sS'HINODE (SOLAR-B)'
p2904
S'sat tle/science/sat29'
p2905
sS'TIANWANG 1C (TW-1C)'
p2906
S'sat tle/cubesat/sat71'
p2907
sS'FLOCK 3P-51'
p2908
S'sat tle/cubesat/sat150'
p2909
sS'RAVAN'
p2910
S'sat tle/cubesat/sat133'
p2911
sS'LEMUR-2-TRUTNA'
p2912
S'sat tle/cubesat/sat251'
p2913
sS'COSMOS 2251'
p2914
S'sat tle/cosmos-2251-debris/sat0'
p2915
sS'GLOBALSTAR M036 [-]'
p2916
S'sat tle/globalstar/sat10'
p2917
sS'FLOCK 3P-52'
p2918
S'sat tle/cubesat/sat228'
p2919
sS'ORBCOMM FM07 [+]'
p2920
S'sat tle/orbcomm/sat10'
p2921
sS'GLOBALSTAR M041 [-]'
p2922
S'sat tle/globalstar/sat13'
p2923
sS'FLOCK 2K-46'
p2924
S'sat tle/cubesat/sat336'
p2925
sS'FLOCK 2K-47'
p2926
S'sat tle/cubesat/sat332'
p2927
sS'RADUGA-1M 3 [+]'
p2928
S'sat tle/raduga/sat42'
p2929
sS'FLOCK 2K-45'
p2930
S'sat tle/cubesat/sat334'
p2931
sS'FLOCK 2K-43'
p2932
S'sat tle/cubesat/sat352'
p2933
sS'FLOCK 2K-40'
p2934
S'sat tle/cubesat/sat343'
p2935
sS'FLOCK 2K-41'
p2936
S'sat tle/cubesat/sat353'
p2937
sS'RADUGA-1 3 [-]'
p2938
S'sat tle/raduga/sat32'
p2939
sS'IRIDIUM 10 [+]'
p2940
S'sat tle/iridium/sat6'
p2941
sS'FLOCK 3P-57'
p2942
S'sat tle/cubesat/sat176'
p2943
sS'FLOCK 3P-56'
p2944
S'sat tle/cubesat/sat240'
p2945
sS'ORBCOMM FM18 [+]'
p2946
S'sat tle/orbcomm/sat14'
p2947
sS'MOLNIYA 1-49'
p2948
S'sat tle/molniya/sat15'
p2949
sS'FLOCK 3P-59'
p2950
S'sat tle/cubesat/sat220'
p2951
sS'OSCAR 23 [?]'
p2952
S'sat tle/nnss/sat13'
p2953
sS'MOLNIYA 1-40'
p2954
S'sat tle/molniya/sat12'
p2955
sS'RADUGA 4 [-]'
p2956
S'sat tle/raduga/sat3'
p2957
sS'AMSC 1'
p2958
S'sat tle/geo/sat6'
p2959
sS'JCSAT 2B'
p2960
S'sat tle/geo/sat401'
p2961
sS'JCSAT 2A'
p2962
S'sat tle/geo/sat73'
p2963
sS'JCSAT-3A'
p2964
S'sat tle/geo/sat146'
p2965
sS'NOAA 17 [-]'
p2966
S'sat tle/noaa/sat17'
p2967
sS'ECAMSAT'
p2968
S'sat tle/cubesat/sat381'
p2969
sS'GSAT0209 (GALILEO 12)'
p2970
S'sat tle/sarsat/sat46'
p2971
sS'LEMUR-2-RDEATON'
p2972
S'sat tle/cubesat/sat193'
p2973
sS'3CAT-2'
p2974
S'sat tle/cubesat/sat122'
p2975
sS'TELEOS 1'
p2976
S'sat tle/resource/sat107'
p2977
sS'SKYSAT-C6'
p2978
S'sat tle/resource/sat140'
p2979
sS'SKYSAT-C7'
p2980
S'sat tle/resource/sat139'
p2981
sS'SKYSAT-C4'
p2982
S'sat tle/resource/sat119'
p2983
sS'SKYSAT-C5'
p2984
S'sat tle/resource/sat120'
p2985
sS'SKYSAT-C2'
p2986
S'sat tle/resource/sat121'
p2987
sS'SKYSAT-C3'
p2988
S'sat tle/resource/sat122'
p2989
sS'SKYSAT-C1'
p2990
S'sat tle/resource/sat115'
p2991
sS'FLOCK 2P-10'
p2992
S'sat tle/cubesat/sat114'
p2993
sS'FLOCK 2P-11'
p2994
S'sat tle/cubesat/sat110'
p2995
sS'FLOCK 2P-12'
p2996
S'sat tle/cubesat/sat116'
p2997
sS'ORBVIEW 2 (SEASTAR)'
p2998
S'sat tle/visual/sat103'
p2999
sS'SKYSAT-C8'
p3000
S'sat tle/resource/sat138'
p3001
sS'SKYSAT-C9'
p3002
S'sat tle/resource/sat137'
p3003
sS'ORBCOMM FM36 [+]'
p3004
S'sat tle/orbcomm/sat33'
p3005
sS'MOLNIYA 1-62'
p3006
S'sat tle/molniya/sat20'
p3007
sS'QUETZSAT 1'
p3008
S'sat tle/ses/sat42'
p3009
sS'LUCH 5B'
p3010
S'sat tle/geo/sat301'
p3011
sS'AMC-9 (GE-12)'
p3012
S'sat tle/ses/sat21'
p3013
sS'INSAT-3D'
p3014
S'sat tle/geo/sat321'
p3015
sS'RADUGA-1 8 [-]'
p3016
S'sat tle/raduga/sat40'
p3017
sS'GLOBALSTAR M075 [+]'
p3018
S'sat tle/globalstar/sat64'
p3019
sS'GORIZONT 21 [-]'
p3020
S'sat tle/gorizont/sat20'
p3021
sS'TIANGONG 1'
p3022
S'sat tle/visual/sat137'
p3023
sS'XM-4 (BLUES)'
p3024
S'sat tle/intelsat/sat37'
p3025
sS'COMPASS 2'
p3026
S'sat tle/cubesat/sat300'
p3027
sS'OSCAR 29 [?]'
p3028
S'sat tle/nnss/sat12'
p3029
sS'SHIJIAN-17 (SJ-17)'
p3030
S'sat tle/geo/sat417'
p3031
sS'INMARSAT 5-F4'
p3032
S'sat tle/geo/sat433'
p3033
sS'INTELSAT 10 (IS-10)'
p3034
S'sat tle/intelsat/sat12'
p3035
sS'INMARSAT 5-F2'
p3036
S'sat tle/geo/sat361'
p3037
sS'INMARSAT 5-F3'
p3038
S'sat tle/geo/sat375'
p3039
sS'GOMX 1'
p3040
S'sat tle/cubesat/sat32'
p3041
sS'INMARSAT 5-F1'
p3042
S'sat tle/geo/sat329'
p3043
sS'ORBCOMM FM29 [-]'
p3044
S'sat tle/orbcomm/sat38'
p3045
sS'RADUGA-1 7 [-]'
p3046
S'sat tle/raduga/sat38'
p3047
sS'YAOGAN-30 E'
p3048
S'sat tle/tle-new/sat20'
p3049
sS'METEOSAT-10 (MSG-3)'
p3050
S'sat tle/geo/sat291'
p3051
sS'O3B FM6'
p3052
S'sat tle/other-comm/sat6'
p3053
sS'GLOBALSTAR M085 [+]'
p3054
S'sat tle/globalstar/sat69'
p3055
sS'MSG-3'
p3056
S'sat tle/sarsat/sat24'
p3057
sS'MSG-2'
p3058
S'sat tle/sarsat/sat9'
p3059
sS'BEEAGLESAT'
p3060
S'sat tle/cubesat/sat286'
p3061
sS'GLOBALSTAR M052 [-]'
p3062
S'sat tle/globalstar/sat23'
p3063
sS'GORIZONT 7 [-]'
p3064
S'sat tle/gorizont/sat6'
p3065
sS'APSTAR 5 (TELSTAR 18)'
p3066
S'sat tle/geo/sat111'
p3067
sS'PROBA-V'
p3068
S'sat tle/engineering/sat14'
p3069
sS'JPSS-1 [+]'
p3070
S'sat tle/noaa/sat21'
p3071
sS'ASTEX 1'
p3072
S'sat tle/visual/sat10'
p3073
sS'STELLA'
p3074
S'sat tle/geodetic/sat4'
p3075
sS'GPS BIIF-5  (PRN 30)'
p3076
S'sat tle/gps-ops/sat23'
p3077
sS'KAITUO 1B'
p3078
S'sat tle/amateur/sat59'
p3079
sS'KAITUO 1A'
p3080
S'sat tle/amateur/sat52'
p3081
sS'ORBCOMM FM116 [+]'
p3082
S'sat tle/orbcomm/sat58'
p3083
sS'PROBA-2'
p3084
S'sat tle/engineering/sat9'
p3085
sS'ORBCOMM FM06 [+]'
p3086
S'sat tle/orbcomm/sat9'
p3087
sS'STSAT-3'
p3088
S'sat tle/science/sat49'
p3089
sS'POLAR BEAR [?]'
p3090
S'sat tle/nnss/sat10'
p3091
sS'RADUGA 24 [-]'
p3092
S'sat tle/raduga/sat24'
p3093
sS'SES-7 (PROTOSTAR 2)'
p3094
S'sat tle/ses/sat35'
p3095
sS'IRIDIUM 75 [+]'
p3096
S'sat tle/iridium/sat67'
p3097
sS'GOSAT (IBUKI)'
p3098
S'sat tle/resource/sat40'
p3099
sS'GORIZONT 28 [-]'
p3100
S'sat tle/gorizont/sat27'
p3101
sS'OCEANSAT-2'
p3102
S'sat tle/resource/sat44'
p3103
sS'GOES 7 [-]'
p3104
S'sat tle/goes/sat6'
p3105
sS'BADR-7 (ARABSAT-6B)'
p3106
S'sat tle/geo/sat385'
p3107
sS'TELSTAR 12V'
p3108
S'sat tle/geo/sat387'
p3109
sS'IRIDIUM 114 [+]'
p3110
S'sat tle/iridium-NEXT/sat6'
p3111
sS'ORBCOMM FM103 [+]'
p3112
S'sat tle/orbcomm/sat47'
p3113
sS'SKYSAT-2'
p3114
S'sat tle/resource/sat84'
p3115
sS'SKYSAT-1'
p3116
S'sat tle/resource/sat73'
p3117
sS'CYGNUS OA-8'
p3118
S'sat tle/stations/sat83'
p3119
sS'IRIDIUM 76 [+]'
p3120
S'sat tle/iridium/sat69'
p3121
sS'GSAT0205 (PRN E24)'
p3122
S'sat tle/galileo/sat8'
p3123
sS'AMC-11 (GE-11)'
p3124
S'sat tle/ses/sat23'
p3125
sS'LEMUR-2-SMITA-SHARAD'
p3126
S'sat tle/cubesat/sat191'
p3127
sS'GPS BIIR-17M'
p3128
S'sat tle/sarsat/sat13'
p3129
sS'GHANASAT-1'
p3130
S'sat tle/cubesat/sat317'
p3131
sS'SL-3 R/B'
p3132
S'sat tle/visual/sat59'
p3133
sS'YAHSAT 1A'
p3134
S'sat tle/geo/sat255'
p3135
sS'YAHSAT 1B'
p3136
S'sat tle/geo/sat284'
p3137
sS'IRIDIUM 128 [+]'
p3138
S'sat tle/iridium-NEXT/sat18'
p3139
sS'IRIDIUM 17 [-]'
p3140
S'sat tle/iridium/sat11'
p3141
sS'IRIDIUM 139 [+]'
p3142
S'sat tle/iridium-NEXT/sat28'
p3143
sS'COSMO-SKYMED 3'
p3144
S'sat tle/resource/sat38'
p3145
sS'COSMO-SKYMED 2'
p3146
S'sat tle/resource/sat25'
p3147
sS'SGDC'
p3148
S'sat tle/geo/sat431'
p3149
sS'IRIDIUM 914 [-]'
p3150
S'sat tle/iridium/sat4'
p3151
sS'TRANSIT 17 [?]'
p3152
S'sat tle/nnss/sat1'
p3153
sS'CHUBUSAT-1'
p3154
S'sat tle/amateur/sat47'
p3155
sS'NOVA 11 [?]'
p3156
S'sat tle/nnss/sat15'
p3157
sS'LEMUR-2-MONSON'
p3158
S'sat tle/cubesat/sat323'
p3159
sS'ERS-2'
p3160
S'sat tle/visual/sat99'
p3161
sS'ERS-1'
p3162
S'sat tle/visual/sat82'
p3163
sS'IRIDIUM 62 [+]'
p3164
S'sat tle/iridium/sat55'
p3165
sS'HJ-1A'
p3166
S'sat tle/dmc/sat1'
p3167
sS'TEMPSAT 1'
p3168
S'sat tle/radar/sat3'
p3169
sS'HJ-1B'
p3170
S'sat tle/dmc/sat2'
p3171
sS'LEMUR-2-CHRIS'
p3172
S'sat tle/cubesat/sat75'
p3173
sS'COSMOS 2474 (742)'
p3174
S'sat tle/glo-ops/sat14'
p3175
sS'RADUGA 25 [-]'
p3176
S'sat tle/raduga/sat25'
p3177
sS'SWAS'
p3178
S'sat tle/science/sat3'
p3179
sS'CUSAT 1'
p3180
S'sat tle/engineering/sat15'
p3181
sS'GLOBALSTAR M037 [+]'
p3182
S'sat tle/globalstar/sat15'
p3183
sS'ST-2'
p3184
S'sat tle/geo/sat258'
p3185
sS'INTELSAT 19 (IS-19)'
p3186
S'sat tle/intelsat/sat57'
p3187
sS'IRIDIUM 61 [+]'
p3188
S'sat tle/iridium/sat49'
p3189
sS'GSAT-18'
p3190
S'sat tle/geo/sat414'
p3191
sS'GSAT-19'
p3192
S'sat tle/geo/sat436'
p3193
sS'EXOCUBE'
p3194
S'sat tle/cubesat/sat69'
p3195
sS'GSAT-12'
p3196
S'sat tle/geo/sat261'
p3197
sS'GALAXY 19 (G-19)'
p3198
S'sat tle/intelsat/sat46'
p3199
sS'GSAT-10'
p3200
S'sat tle/geo/sat298'
p3201
sS'ALOS (DAICHI)'
p3202
S'sat tle/visual/sat125'
p3203
sS'SPACEWAY 1'
p3204
S'sat tle/intelsat/sat29'
p3205
sS'GSAT-17'
p3206
S'sat tle/geo/sat441'
p3207
sS'IRIDIUM 102 [+]'
p3208
S'sat tle/iridium-NEXT/sat3'
p3209
sS'SPACEWAY 2'
p3210
S'sat tle/intelsat/sat34'
p3211
sS'GOES 16 [S]'
p3212
S'sat tle/goes/sat15'
p3213
sS'CLUSTER II-FM8 (TANGO)'
p3214
S'sat tle/science/sat11'
p3215
sS'GPS BIIR-11 (PRN 19)'
p3216
S'sat tle/gps-ops/sat9'
p3217
sS'UNIBRITE'
p3218
S'sat tle/cubesat/sat18'
p3219
sS'DEORBITSAIL'
p3220
S'sat tle/cubesat/sat70'
p3221
sS'IRIDIUM 95 [+]'
p3222
S'sat tle/iridium/sat84'
p3223
sS'CZ-4B R/B'
p3224
S'sat tle/visual/sat130'
p3225
sS'IRIDIUM 56 [+]'
p3226
S'sat tle/iridium/sat44'
p3227
sS'OAO 3 (COPERNICUS)'
p3228
S'sat tle/visual/sat13'
p3229
sS'GRIFEX'
p3230
S'sat tle/cubesat/sat68'
p3231
sS'LAGEOS 2'
p3232
S'sat tle/geodetic/sat3'
p3233
sS'LAGEOS 1'
p3234
S'sat tle/geodetic/sat1'
p3235
sS'COSMOS 482 DESCENT CRAFT'
p3236
S'sat tle/visual/sat12'
p3237
sS'RADUGA 20 [-]'
p3238
S'sat tle/raduga/sat19'
p3239
sS'SES-15'
p3240
S'sat tle/ses/sat65'
p3241
sS'OPTUS 10'
p3242
S'sat tle/geo/sat348'
p3243
sS'CHINASAT 9A (ZX 9A)'
p3244
S'sat tle/geo/sat438'
p3245
sS'INTELSAT 12 (IS-12)'
p3246
S'sat tle/intelsat/sat10'
p3247
sS'GALAXY 23 (G-23)'
p3248
S'sat tle/intelsat/sat24'
p3249
sS'MIDORI II (ADEOS-II)'
p3250
S'sat tle/visual/sat116'
p3251
sS'SES-10'
p3252
S'sat tle/ses/sat64'
p3253
sS'ARSAT 1'
p3254
S'sat tle/geo/sat354'
p3255
sS'ARSAT 2'
p3256
S'sat tle/geo/sat379'
p3257
sS'COSMOS 1867'
p3258
S'sat tle/visual/sat56'
p3259
sS'GPS BIIR-2  (PRN 13)'
p3260
S'sat tle/gps-ops/sat0'
p3261
sS'FLOCK 3P-71'
p3262
S'sat tle/cubesat/sat222'
p3263
sS'ORBCOMM FM109 [+]'
p3264
S'sat tle/orbcomm/sat42'
p3265
sS'SUOMI NPP'
p3266
S'sat tle/weather/sat23'
p3267
sS'CYGFM03'
p3268
S'sat tle/weather/sat43'
p3269
sS'CYGFM02'
p3270
S'sat tle/weather/sat38'
p3271
sS'CYGFM01'
p3272
S'sat tle/weather/sat39'
p3273
sS'CYGFM07'
p3274
S'sat tle/weather/sat42'
p3275
sS'CYGFM06'
p3276
S'sat tle/weather/sat41'
p3277
sS'CYGFM05'
p3278
S'sat tle/weather/sat36'
p3279
sS'CYGFM04'
p3280
S'sat tle/weather/sat37'
p3281
sS'CYGFM08'
p3282
S'sat tle/weather/sat40'
p3283
sS'KIZUNA (WINDS)'
p3284
S'sat tle/geo/sat177'
p3285
sS'ISS DEB (ROSA)'
p3286
S'sat tle/stations/sat78'
p3287
sS'LEMUR-2-MIA-GRACE'
p3288
S'sat tle/cubesat/sat190'
p3289
sS'GLOBALSTAR M004 [-]'
p3290
S'sat tle/globalstar/sat1'
p3291
sS'FLOCK 3P-33'
p3292
S'sat tle/cubesat/sat188'
p3293
sS'FLOCK 3P-32'
p3294
S'sat tle/cubesat/sat221'
p3295
sS'FLOCK 3P-31'
p3296
S'sat tle/cubesat/sat247'
p3297
sS'FLOCK 3P-30'
p3298
S'sat tle/cubesat/sat185'
p3299
sS'FLOCK 3P-37'
p3300
S'sat tle/cubesat/sat151'
p3301
sS'FLOCK 3P-36'
p3302
S'sat tle/cubesat/sat184'
p3303
sS'FLOCK 3P-35'
p3304
S'sat tle/cubesat/sat187'
p3305
sS'FLOCK 3P-34'
p3306
S'sat tle/cubesat/sat186'
p3307
sS'ASTRA 5B'
p3308
S'sat tle/ses/sat53'
p3309
sS'FLOCK 3P-39'
p3310
S'sat tle/cubesat/sat236'
p3311
sS'FLOCK 3P-38'
p3312
S'sat tle/cubesat/sat235'
p3313
sS'ORBCOMM FM32 [+]'
p3314
S'sat tle/orbcomm/sat31'
p3315
sS'FLOCK 3P-1'
p3316
S'sat tle/cubesat/sat165'
p3317
sS'ORBCOMM FM15 [+]'
p3318
S'sat tle/orbcomm/sat18'
p3319
sS'INTELSAT 905 (IS-905)'
p3320
S'sat tle/intelsat/sat19'
p3321
sS'EXACTVIEW 9'
p3322
S'sat tle/cubesat/sat78'
p3323
sS'fecha'
p3324
cdatetime
date
p3325
(S'\x07\xe1\x0c\x0c'
tRp3326
sS'GORIZONT 24 [-]'
p3327
S'sat tle/gorizont/sat23'
p3328
sS'BEIDOU IGSO 3'
p3329
S'sat tle/beidou/sat5'
p3330
sS'BEIDOU IGSO 2'
p3331
S'sat tle/beidou/sat4'
p3332
sS'BEIDOU IGSO 1'
p3333
S'sat tle/beidou/sat2'
p3334
sS'FLOCK 3P-2'
p3335
S'sat tle/cubesat/sat164'
p3336
sS'BEIDOU IGSO 6'
p3337
S'sat tle/beidou/sat18'
p3338
sS'BEIDOU IGSO 5'
p3339
S'sat tle/beidou/sat7'
p3340
sS'BEIDOU IGSO 4'
p3341
S'sat tle/beidou/sat6'
p3342
sS'ITUPSAT 1'
p3343
S'sat tle/cubesat/sat12'
p3344
sS'YUBILEINY (RS-30)'
p3345
S'sat tle/amateur/sat18'
p3346
sS'IRIDIUM 133 [+]'
p3347
S'sat tle/iridium-NEXT/sat20'
p3348
sS'SKY MUSTER 2'
p3349
S'sat tle/geo/sat415'
p3350
sS'METEOR-M 1'
p3351
S'sat tle/weather/sat19'
p3352
sS'METEOR-M 2'
p3353
S'sat tle/weather/sat28'
p3354
sS'FLOCK 2P-6'
p3355
S'sat tle/cubesat/sat109'
p3356
sS'ORBCOMM FM20 [+]'
p3357
S'sat tle/orbcomm/sat16'
p3358
sS'LEMUR-2-ANUBHAVTHAKUR'
p3359
S'sat tle/cubesat/sat142'
p3360
sS'RADUGA 15 [-]'
p3361
S'sat tle/raduga/sat14'
p3362
sS'SWARM B'
p3363
S'sat tle/science/sat51'
p3364
sS'SPACECUBE'
p3365
S'sat tle/cubesat/sat269'
p3366
sS'ORBCOMM FM17 [-]'
p3367
S'sat tle/orbcomm/sat13'
p3368
sS'CHINASAT 1C (ZX 1C)'
p3369
S'sat tle/geo/sat388'
p3370
sS'COSMOS 1500'
p3371
S'sat tle/visual/sat33'
p3372
sS'LCS 1'
p3373
S'sat tle/radar/sat2'
p3374
sS'DIAMOND GREEN'
p3375
S'sat tle/cubesat/sat307'
p3376
sS'CLUSTER II-FM7 (SAMBA)'
p3377
S'sat tle/science/sat9'
p3378
sS'INTELSAT 904 (IS-904)'
p3379
S'sat tle/intelsat/sat16'
p3380
sS'GLOBALSTAR M081 [+]'
p3381
S'sat tle/globalstar/sat70'
p3382
sS'RADUGA 22 [-]'
p3383
S'sat tle/raduga/sat21'
p3384
sS'GSAT-15 (GAGAN/PRN 139)'
p3385
S'sat tle/sbas/sat13'
p3386
sS'GORIZONT 2 [-]'
p3387
S'sat tle/gorizont/sat1'
p3388
sS'YAOGAN 3'
p3389
S'sat tle/resource/sat24'
p3390
sS'SWIFT'
p3391
S'sat tle/science/sat20'
p3392
sS'YAOGAN 4'
p3393
S'sat tle/dmc/sat3'
p3394
sS'YAOGAN 7'
p3395
S'sat tle/resource/sat47'
p3396
sS'YAOGAN 6'
p3397
S'sat tle/resource/sat41'
p3398
sS'BEIDOU M3'
p3399
S'sat tle/beidou/sat9'
p3400
sS'COSMOS 2476 (744)'
p3401
S'sat tle/glo-ops/sat15'
p3402
sS'NSS-12'
p3403
S'sat tle/ses/sat36'
p3404
sS'RADUGA-1M 1 [-]'
p3405
S'sat tle/raduga/sat39'
p3406
sS'EUTELSAT 117 WEST A'
p3407
S'sat tle/geo/sat314'
p3408
sS'EUTELSAT 117 WEST B'
p3409
S'sat tle/geo/sat406'
p3410
sS'KKS-1 (KISEKI)'
p3411
S'sat tle/amateur/sat20'
p3412
sS'NIGERIAEDUSAT-1'
p3413
S'sat tle/cubesat/sat320'
p3414
sS'BRITE-PL'
p3415
S'sat tle/cubesat/sat33'
p3416
sS'TSUBAME'
p3417
S'sat tle/resource/sat92'
p3418
sS'LILACSAT 2'
p3419
S'sat tle/amateur/sat56'
p3420
sS'IRIDIUM 40 [-]'
p3421
S'sat tle/iridium/sat34'
p3422
sS'WORLDVIEW-2 (WV-2)'
p3423
S'sat tle/resource/sat45'
p3424
sS'FLOCK 2P-8'
p3425
S'sat tle/cubesat/sat115'
p3426
sS'FLOCK 2P-9'
p3427
S'sat tle/cubesat/sat112'
p3428
sS'FLOCK 2P-2'
p3429
S'sat tle/cubesat/sat111'
p3430
sS'FLOCK 2P-3'
p3431
S'sat tle/cubesat/sat120'
p3432
sS'FLOCK 2P-1'
p3433
S'sat tle/cubesat/sat119'
p3434
sS'COSMOS 2361 [-]'
p3435
S'sat tle/musson/sat0'
p3436
sS'FLOCK 2P-7'
p3437
S'sat tle/cubesat/sat117'
p3438
sS'FLOCK 2P-4'
p3439
S'sat tle/cubesat/sat113'
p3440
sS'FLOCK 2P-5'
p3441
S'sat tle/cubesat/sat118'
p3442
sS'IRIDIUM 107 [+]'
p3443
S'sat tle/iridium-NEXT/sat25'
p3444
sS'GORIZONT 1 [-]'
p3445
S'sat tle/gorizont/sat0'
p3446
sS'MOLNIYA 3-42'
p3447
S'sat tle/molniya/sat32'
p3448
sS'MOLNIYA 3-41'
p3449
S'sat tle/molniya/sat31'
p3450
sS'MOLNIYA 3-40'
p3451
S'sat tle/molniya/sat29'
p3452
sS'GORIZONT 10 [-]'
p3453
S'sat tle/gorizont/sat9'
p3454
sS'XTAR-EUR'
p3455
S'sat tle/geo/sat116'
p3456
sS'GLOBALSTAR M094 [+]'
p3457
S'sat tle/globalstar/sat80'
p3458
sS'IRIDIUM 53 [+]'
p3459
S'sat tle/iridium/sat47'
p3460
sS'AJISAI (EGS)'
p3461
S'sat tle/geodetic/sat2'
p3462
sS'HAIYANG 2A'
p3463
S'sat tle/resource/sat52'
p3464
sS'INTELSAT 701 (IS-701)'
p3465
S'sat tle/intelsat/sat0'
p3466
sS'AOBA-VELOX 3'
p3467
S'sat tle/cubesat/sat147'
p3468
sS'TIANLIAN 1-03'
p3469
S'sat tle/geo/sat293'
p3470
sS'TIANLIAN 1-02'
p3471
S'sat tle/geo/sat260'
p3472
sS'TIANLIAN 1-01'
p3473
S'sat tle/geo/sat183'
p3474
sS'LEMUR-2-TACHIKOMA'
p3475
S'sat tle/cubesat/sat196'
p3476
sS'IRIDIUM 66 [+]'
p3477
S'sat tle/iridium/sat59'
p3478
sS'TIANLIAN 1-04'
p3479
S'sat tle/geo/sat419'
p3480
sS'IRIDIUM 71 [-]'
p3481
S'sat tle/iridium/sat63'
p3482
sS'FGRST (GLAST)'
p3483
S'sat tle/science/sat34'
p3484
sS'SL-12 R/B(2)'
p3485
S'sat tle/visual/sat40'
p3486
sS'ORBCOMM-X [-]'
p3487
S'sat tle/orbcomm/sat0'
p3488
sS'RIGIDSPHERE 2 (LCS 4)'
p3489
S'sat tle/radar/sat8'
p3490
sS'POPSAT-HIP-1'
p3491
S'sat tle/cubesat/sat47'
p3492
sS'NILESAT 201'
p3493
S'sat tle/geo/sat240'
p3494
sS'COSMOS 1743'
p3495
S'sat tle/visual/sat45'
p3496
sS'TELKOM 2'
p3497
S'sat tle/geo/sat130'
p3498
sS'GPS BIIR-18M'
p3499
S'sat tle/sarsat/sat14'
p3500
sS'TELKOM 1'
p3501
S'sat tle/geo/sat37'
p3502
sS'JCSAT-RA (JCSAT-12)'
p3503
S'sat tle/geo/sat214'
p3504
sS'COSMOS 2278'
p3505
S'sat tle/visual/sat95'
p3506
sS'IRIDIUM 24 [-]'
p3507
S'sat tle/iridium/sat40'
p3508
sS'GLOBALSTAR M029 [+]'
p3509
S'sat tle/globalstar/sat46'
p3510
sS'GLOBALSTAR M054 [-]'
p3511
S'sat tle/globalstar/sat34'
p3512
sS'NOAA 12 [-]'
p3513
S'sat tle/noaa/sat12'
p3514
sS'UOSAT 2 (UO-11)'
p3515
S'sat tle/amateur/sat1'
p3516
sS'ANIK F1R'
p3517
S'sat tle/geo/sat126'
p3518
sS'GPS BIIRM-4 (PRN 15)'
p3519
S'sat tle/gps-ops/sat15'
p3520
sS'COSMOS 2473'
p3521
S'sat tle/geo/sat268'
p3522
sS'IRIDIUM 19 [+]'
p3523
S'sat tle/iridium/sat27'
p3524
sS'TET-1'
p3525
S'sat tle/engineering/sat12'
p3526
sS'MTI'
p3527
S'sat tle/military/sat0'
p3528
sS'EXPRESS-AT1'
p3529
S'sat tle/geo/sat338'
p3530
sS'GLOBALSTAR M062 [-]'
p3531
S'sat tle/globalstar/sat49'
p3532
sS'EXPRESS-AT2'
p3533
S'sat tle/geo/sat339'
p3534
sS'ORBCOMM FM05 [+]'
p3535
S'sat tle/orbcomm/sat8'
p3536
sS'PROBA-1'
p3537
S'sat tle/engineering/sat0'
p3538
sS'GORIZONT 27 [-]'
p3539
S'sat tle/gorizont/sat26'
p3540
sS'GPS BIIR-9  (PRN 21)'
p3541
S'sat tle/gps-ops/sat7'
p3542
sS'INMARSAT 4-F1'
p3543
S'sat tle/geo/sat118'
p3544
sS'INMARSAT 4-F3'
p3545
S'sat tle/geo/sat194'
p3546
sS'INMARSAT 4-F2'
p3547
S'sat tle/geo/sat129'
p3548
sS'APSTAR 9'
p3549
S'sat tle/geo/sat381'
p3550
sS'APSTAR 7'
p3551
S'sat tle/geo/sat283'
p3552
sS'APSTAR 6'
p3553
S'sat tle/geo/sat119'
p3554
sS'NIMIQ 6'
p3555
S'sat tle/geo/sat287'
p3556
sS'INTELSAT 903 (IS-903)'
p3557
S'sat tle/intelsat/sat17'
p3558
sS'GSAT0204 (GALILEO 8)'
p3559
S'sat tle/sarsat/sat41'
p3560
sS'GLOBALSTAR M089 [+]'
p3561
S'sat tle/globalstar/sat71'
p3562
sS'GPS BIIR-7  (PRN 18)'
p3563
S'sat tle/gps-ops/sat5'
p3564
sS'YAMAL 202'
p3565
S'sat tle/geo/sat103'
p3566
sS'ATLAS CENTAUR R/B'
p3567
S'sat tle/visual/sat14'
p3568
sS'WILDBLUE-1'
p3569
S'sat tle/geo/sat155'
p3570
sS'BEIDOU I1-S'
p3571
S'sat tle/beidou/sat13'
p3572
sS'FLOCK 3P-78'
p3573
S'sat tle/cubesat/sat245'
p3574
sS'IRIDIUM 122 [+]'
p3575
S'sat tle/iridium-NEXT/sat22'
p3576
sS'COSMOS 2407 [+]'
p3577
S'sat tle/musson/sat4'
p3578
sS'FLOCK 3P-77'
p3579
S'sat tle/cubesat/sat223'
p3580
sS'ORBCOMM FM08 [+]'
p3581
S'sat tle/orbcomm/sat3'
p3582
sS'FLOCK 3P-76'
p3583
S'sat tle/cubesat/sat217'
p3584
sS'GLOBALSTAR M066 [+]'
p3585
S'sat tle/globalstar/sat58'
p3586
sS'FLOCK 3P-74'
p3587
S'sat tle/cubesat/sat246'
p3588
sS'GLOBALSTAR M055 [-]'
p3589
S'sat tle/globalstar/sat39'
p3590
sS'OSCAR 32 [?]'
p3591
S'sat tle/nnss/sat14'
p3592
sS'FLOCK 3P-21'
p3593
S'sat tle/cubesat/sat157'
p3594
sS'FLOCK 3P-22'
p3595
S'sat tle/cubesat/sat156'
p3596
sS'FLOCK 3P-23'
p3597
S'sat tle/cubesat/sat216'
p3598
sS'FLOCK 3P-24'
p3599
S'sat tle/cubesat/sat154'
p3600
sS'FLOCK 3P-25'
p3601
S'sat tle/cubesat/sat162'
p3602
sS'FLOCK 3P-26'
p3603
S'sat tle/cubesat/sat159'
p3604
sS'METEOSAT-11 (MSG-4)'
p3605
S'sat tle/geo/sat370'
p3606
sS'FLOCK 3P-28'
p3607
S'sat tle/cubesat/sat158'
p3608
sS'FLOCK 3P-29'
p3609
S'sat tle/cubesat/sat243'
p3610
sS'ODIN'
p3611
S'sat tle/science/sat12'
p3612
sS'BSAT-3C (JCSAT-110R)'
p3613
S'sat tle/geo/sat265'
p3614
sS'LAPAN-A2 (IO-86)'
p3615
S'sat tle/amateur/sat63'
p3616
sS'GPS BIIR-13 (PRN 02)'
p3617
S'sat tle/gps-ops/sat11'
p3618
sS'LANDSAT 8'
p3619
S'sat tle/resource/sat67'
p3620
sS'PLEIADES 1B'
p3621
S'sat tle/resource/sat65'
p3622
sS'PLEIADES 1A'
p3623
S'sat tle/resource/sat57'
p3624
sS'LANDSAT 7'
p3625
S'sat tle/tdrss/sat6'
p3626
sS'2015-049G'
p3627
S'sat tle/amateur/sat53'
p3628
sS'GSAT-8 (GAGAN/PRN 127)'
p3629
S'sat tle/sbas/sat6'
p3630
sS'GLOBALSTAR M006 [-]'
p3631
S'sat tle/globalstar/sat5'
p3632
sS'GLOBALSTAR M071 [P]'
p3633
S'sat tle/globalstar/sat55'
p3634
sS'2017-071R'
p3635
S'sat tle/cubesat/sat397'
p3636
sS'2017-071S'
p3637
S'sat tle/cubesat/sat398'
p3638
sS'2017-071P'
p3639
S'sat tle/cubesat/sat395'
p3640
sS'2017-071Q'
p3641
S'sat tle/cubesat/sat396'
p3642
sS'2017-071T'
p3643
S'sat tle/cubesat/sat399'
p3644
sS'GOKTURK 1A'
p3645
S'sat tle/resource/sat126'
p3646
sS'2017-071F'
p3647
S'sat tle/cubesat/sat387'
p3648
sS'2017-071G'
p3649
S'sat tle/cubesat/sat388'
p3650
sS'2017-071E'
p3651
S'sat tle/cubesat/sat386'
p3652
sS'2017-071J'
p3653
S'sat tle/cubesat/sat390'
p3654
sS'2017-071K'
p3655
S'sat tle/cubesat/sat391'
p3656
sS'2017-071H'
p3657
S'sat tle/cubesat/sat389'
p3658
sS'2017-071N'
p3659
S'sat tle/cubesat/sat394'
p3660
sS'2017-071L'
p3661
S'sat tle/cubesat/sat392'
p3662
sS'2017-071M'
p3663
S'sat tle/cubesat/sat393'
p3664
sS'EUTELSAT 65 WEST A'
p3665
S'sat tle/geo/sat398'
p3666
sS'GPS BIIRM-6 (PRN 07)'
p3667
S'sat tle/gps-ops/sat17'
p3668
sS'BEESAT-4'
p3669
S'sat tle/cubesat/sat121'
p3670
sS'BEESAT-3'
p3671
S'sat tle/cubesat/sat21'
p3672
sS'BEESAT-2'
p3673
S'sat tle/cubesat/sat22'
p3674
sS'NOAA 5 [-]'
p3675
S'sat tle/noaa/sat4'
p3676
sS"FLOCK 2E'-9"
p3677
S'sat tle/cubesat/sat105'
p3678
sS"FLOCK 2E'-8"
p3679
S'sat tle/cubesat/sat100'
p3680
sS'TRANSIT 18 [?]'
p3681
S'sat tle/nnss/sat2'
p3682
sS"FLOCK 2E'-1"
p3683
S'sat tle/cubesat/sat88'
p3684
sS"FLOCK 2E'-3"
p3685
S'sat tle/cubesat/sat89'
p3686
sS"FLOCK 2E'-2"
p3687
S'sat tle/cubesat/sat90'
p3688
sS"FLOCK 2E'-5"
p3689
S'sat tle/cubesat/sat98'
p3690
sS"FLOCK 2E'-6"
p3691
S'sat tle/cubesat/sat99'
p3692
sS'OSCAR 7 (AO-7)'
p3693
S'sat tle/amateur/sat0'
p3694
sS'GLOBALSTAR M024 [-]'
p3695
S'sat tle/globalstar/sat32'
p3696
sS'CRYOSAT 2'
p3697
S'sat tle/science/sat37'
p3698
sS'BELINTERSAT-1'
p3699
S'sat tle/geo/sat393'
p3700
sS'IRIDIUM 65 [+]'
p3701
S'sat tle/iridium/sat58'
p3702
sS'LEMUR-2-SHAINAJOHL'
p3703
S'sat tle/cubesat/sat294'
p3704
sS'MOST'
p3705
S'sat tle/science/sat18'
p3706
sS'LEMUR-2-ZACHARY'
p3707
S'sat tle/cubesat/sat327'
p3708
sS'RADUGA-1 2 [-]'
p3709
S'sat tle/raduga/sat27'
p3710
sS'CHINASAT 12 (ZX 12)'
p3711
S'sat tle/geo/sat306'
p3712
sS'TABLETSAT-AURORA'
p3713
S'sat tle/engineering/sat21'
p3714
sS'RADUGA 30 [-]'
p3715
S'sat tle/raduga/sat31'
p3716
sS'GORIZONT 25 [-]'
p3717
S'sat tle/gorizont/sat24'
p3718
sS'GSAT0202 (GALILEO 6)'
p3719
S'sat tle/sarsat/sat36'
p3720
sS'ISS (ZARYA)'
p3721
S'sat tle/amateur/sat8'
p3722
sS'AL-FARABI 1'
p3723
S'sat tle/cubesat/sat214'
p3724
sS'HORIZONS-2'
p3725
S'sat tle/intelsat/sat42'
p3726
sS'IRIDIUM 12 [+]'
p3727
S'sat tle/iridium/sat5'
p3728
sS'ORBCOMM FM110 [+]'
p3729
S'sat tle/orbcomm/sat51'
p3730
sS'ZHONGXING-22A'
p3731
S'sat tle/geo/sat149'
p3732
sS'ECHOSTAR 21'
p3733
S'sat tle/geo/sat437'
p3734
sS'ECHOSTAR 23'
p3735
S'sat tle/geo/sat427'
p3736
sS'GLOBALSTAR M002 [-]'
p3737
S'sat tle/globalstar/sat2'
p3738
sS'BREEZE-M R/B'
p3739
S'sat tle/2012-044/sat0'
p3740
sS'TELSTAR 12 (ORION 2)'
p3741
S'sat tle/geo/sat40'
p3742
sS'PALAPA D'
p3743
S'sat tle/geo/sat216'
p3744
sS'E 117 W B (WAAS/PRN 131)'
p3745
S'sat tle/sbas/sat14'
p3746
sS'SENTINEL-2A'
p3747
S'sat tle/resource/sat100'
p3748
sS'GALAXY 15 (G-15)'
p3749
S'sat tle/intelsat/sat33'
p3750
sS'ASTRO-H (HITOMI)'
p3751
S'sat tle/visual/sat142'
p3752
sS'GPS BIIF-2'
p3753
S'sat tle/sarsat/sat20'
p3754
sS'ROBUSTA-1B'
p3755
S'sat tle/cubesat/sat313'
p3756
sS'GLOBALSTAR M096 [+]'
p3757
S'sat tle/globalstar/sat81'
p3758
sS'INTEGRAL'
p3759
S'sat tle/science/sat15'
p3760
sS'ORBCOMM FM24 [-]'
p3761
S'sat tle/orbcomm/sat24'
p3762
sS'LAPAN-A2'
p3763
S'sat tle/resource/sat103'
p3764
sS'LAPAN-A3'
p3765
S'sat tle/resource/sat116'
p3766
sS'INTELSAT 10-02'
p3767
S'sat tle/intelsat/sat27'
p3768
sS'GSAT-14'
p3769
S'sat tle/geo/sat332'
p3770
sS'MOLNIYA 1-90'
p3771
S'sat tle/molniya/sat37'
p3772
sS'GCOM-W1 (SHIZUKU)'
p3773
S'sat tle/science/sat38'
p3774
sS'MOLNIYA 1-91'
p3775
S'sat tle/molniya/sat38'
p3776
sS'GORIZONT 19 [-]'
p3777
S'sat tle/gorizont/sat18'
p3778
sS'GOES 1 (SMS-C) [-]'
p3779
S'sat tle/goes/sat0'
p3780
sS'ORBCOMM FM38 [-]'
p3781
S'sat tle/orbcomm/sat36'
p3782
sS'GLOBALSTAR M065 [+]'
p3783
S'sat tle/globalstar/sat52'
p3784
sS'IRIDIUM 14 [+]'
p3785
S'sat tle/iridium/sat79'
p3786
sS'SL-14 R/B'
p3787
S'sat tle/visual/sat85'
p3788
sS'PROMETHEUS 2-3'
p3789
S'sat tle/cubesat/sat139'
p3790
sS'GORIZONT 8 [-]'
p3791
S'sat tle/gorizont/sat7'
p3792
sS'PROMETHEUS 2-1'
p3793
S'sat tle/cubesat/sat138'
p3794
sS'ARIANE 5 R/B'
p3795
S'sat tle/visual/sat122'
p3796
sS'IRS-P5 (CARTOSAT-1)'
p3797
S'sat tle/resource/sat13'
p3798
sS'DLR-TUBSAT'
p3799
S'sat tle/resource/sat4'
p3800
sS'HUANJING 1B (HJ-1B)'
p3801
S'sat tle/resource/sat35'
p3802
sS'SEEDS II (CO-66)'
p3803
S'sat tle/cubesat/sat9'
p3804
sS'GSAT0104 (GALILEO-FM4)'
p3805
S'sat tle/sarsat/sat28'
p3806
sS'BRISAT'
p3807
S'sat tle/geo/sat407'
p3808
sS'CALSPHERE 4(A)'
p3809
S'sat tle/radar/sat4'
p3810
s.