(dp1
S'date'
p2
cdatetime
datetime
p3
(S'\x07\xe0\x0b\x0e\x12\x0c4\x0c<\x12'
tRp4
sS'nombre'
p5
S'zacatecas '
p6
sS'latitud'
p7
S'22.768662'
p8
sS'elevacion'
p9
I2455
sS'logitud'
p10
S'-102.563912'
p11
s.
